; Listing generated by Microsoft (R) Optimizing Compiler Version 19.42.34435.0 

	TITLE	C:\Users\rpg26\OneDrive\Desktop\Source\VS2010\Buckland_Chapter7 to 10_Raven\Debug\FuzzySet_Singleton.obj
	.686P
	.XMM
	include listing.inc
	.model	flat

INCLUDELIB LIBCMTD
INCLUDELIB OLDNAMES

CONST	SEGMENT
?_Valid_strftime_specifiers@std@@3QBDB DB 061H		; std::_Valid_strftime_specifiers
	DB	041H
	DB	062H
	DB	042H
	DB	063H
	DB	043H
	DB	064H
	DB	044H
	DB	065H
	DB	046H
	DB	067H
	DB	047H
	DB	068H
	DB	048H
	DB	049H
	DB	06aH
	DB	06dH
	DB	04dH
	DB	06eH
	DB	070H
	DB	072H
	DB	052H
	DB	053H
	DB	074H
	DB	054H
	DB	075H
	DB	055H
	DB	056H
	DB	077H
	DB	057H
	DB	078H
	DB	058H
	DB	079H
	DB	059H
	DB	07aH
	DB	05aH
$SG46368 DB	'invalid argument', 00H
	ORG $+3
$SG46369 DB	'%s', 00H
	ORG $+5
$SG46370 DB	'C:\Program Files\Microsoft Visual Studio\2022\Community\'
	DB	'VC\Tools\MSVC\14.42.34433\include\xmemory', 00H
	ORG $+6
$SG46371 DB	'C', 00H, ':', 00H, '\', 00H, 'P', 00H, 'r', 00H, 'o', 00H
	DB	'g', 00H, 'r', 00H, 'a', 00H, 'm', 00H, ' ', 00H, 'F', 00H, 'i'
	DB	00H, 'l', 00H, 'e', 00H, 's', 00H, '\', 00H, 'M', 00H, 'i', 00H
	DB	'c', 00H, 'r', 00H, 'o', 00H, 's', 00H, 'o', 00H, 'f', 00H, 't'
	DB	00H, ' ', 00H, 'V', 00H, 'i', 00H, 's', 00H, 'u', 00H, 'a', 00H
	DB	'l', 00H, ' ', 00H, 'S', 00H, 't', 00H, 'u', 00H, 'd', 00H, 'i'
	DB	00H, 'o', 00H, '\', 00H, '2', 00H, '0', 00H, '2', 00H, '2', 00H
	DB	'\', 00H, 'C', 00H, 'o', 00H, 'm', 00H, 'm', 00H, 'u', 00H, 'n'
	DB	00H, 'i', 00H, 't', 00H, 'y', 00H, '\', 00H, 'V', 00H, 'C', 00H
	DB	'\', 00H, 'T', 00H, 'o', 00H, 'o', 00H, 'l', 00H, 's', 00H, '\'
	DB	00H, 'M', 00H, 'S', 00H, 'V', 00H, 'C', 00H, '\', 00H, '1', 00H
	DB	'4', 00H, '.', 00H, '4', 00H, '2', 00H, '.', 00H, '3', 00H, '4'
	DB	00H, '4', 00H, '3', 00H, '3', 00H, '\', 00H, 'i', 00H, 'n', 00H
	DB	'c', 00H, 'l', 00H, 'u', 00H, 'd', 00H, 'e', 00H, '\', 00H, 'x'
	DB	00H, 'm', 00H, 'e', 00H, 'm', 00H, 'o', 00H, 'r', 00H, 'y', 00H
	DB	00H, 00H
$SG46372 DB	00H, 00H
	ORG $+2
$SG46373 DB	'"', 00H, 'i', 00H, 'n', 00H, 'v', 00H, 'a', 00H, 'l', 00H
	DB	'i', 00H, 'd', 00H, ' ', 00H, 'a', 00H, 'r', 00H, 'g', 00H, 'u'
	DB	00H, 'm', 00H, 'e', 00H, 'n', 00H, 't', 00H, '"', 00H, 00H, 00H
CONST	ENDS
PUBLIC	?__empty_global_delete@@YAXPAX@Z		; __empty_global_delete
PUBLIC	?__empty_global_delete@@YAXPAXI@Z		; __empty_global_delete
PUBLIC	?CalculateDOM@FuzzySet_Singleton@@UBENN@Z	; FuzzySet_Singleton::CalculateDOM
PUBLIC	__real@0000000000000000
PUBLIC	__real@3ff0000000000000
EXTRN	__RTC_InitBase:PROC
EXTRN	__RTC_Shutdown:PROC
EXTRN	__fltused:DWORD
;	COMDAT __real@3ff0000000000000
CONST	SEGMENT
__real@3ff0000000000000 DQ 03ff0000000000000r	; 1
CONST	ENDS
;	COMDAT __real@0000000000000000
CONST	SEGMENT
__real@0000000000000000 DQ 00000000000000000r	; 0
CONST	ENDS
;	COMDAT rtc$TMZ
rtc$TMZ	SEGMENT
__RTC_Shutdown.rtc$TMZ DD FLAT:__RTC_Shutdown
rtc$TMZ	ENDS
;	COMDAT rtc$IMZ
rtc$IMZ	SEGMENT
__RTC_InitBase.rtc$IMZ DD FLAT:__RTC_InitBase
rtc$IMZ	ENDS
; Function compile flags: /Odtp /RTCsu
; File C:\Users\rpg26\OneDrive\Desktop\Source\VS2010\Common\fuzzy\FuzzySet_Singleton.cpp
_TEXT	SEGMENT
_this$ = -4						; size = 4
_val$ = 8						; size = 8
?CalculateDOM@FuzzySet_Singleton@@UBENN@Z PROC		; FuzzySet_Singleton::CalculateDOM
; _this$ = ecx

; 4    : {

	push	ebp
	mov	ebp, esp
	push	ecx
	mov	DWORD PTR _this$[ebp], ecx

; 5    :   if ( (val >= m_dMidPoint-m_dLeftOffset) &&

	mov	eax, DWORD PTR _this$[ebp]
	mov	ecx, DWORD PTR _this$[ebp]
	movsd	xmm0, QWORD PTR [eax+24]
	subsd	xmm0, QWORD PTR [ecx+32]
	movsd	xmm1, QWORD PTR _val$[ebp]
	comisd	xmm1, xmm0
	jb	SHORT $LN2@CalculateD
	mov	edx, DWORD PTR _this$[ebp]
	mov	eax, DWORD PTR _this$[ebp]
	movsd	xmm0, QWORD PTR [edx+24]
	addsd	xmm0, QWORD PTR [eax+40]
	comisd	xmm0, QWORD PTR _val$[ebp]
	jb	SHORT $LN2@CalculateD

; 6    :        (val <= m_dMidPoint+m_dRightOffset) )
; 7    :   {
; 8    :     return 1.0;

	fld1
	jmp	SHORT $LN3@CalculateD

; 9    :   }

	jmp	SHORT $LN3@CalculateD
$LN2@CalculateD:

; 10   : 
; 11   :   //out of range of this FLV, return zero
; 12   :   else
; 13   :   {
; 14   :     return 0.0;

	fldz
$LN3@CalculateD:

; 15   :   }
; 16   : }

	mov	esp, ebp
	pop	ebp
	ret	8
?CalculateDOM@FuzzySet_Singleton@@UBENN@Z ENDP		; FuzzySet_Singleton::CalculateDOM
_TEXT	ENDS
; Function compile flags: /Odtp /RTCsu
; File C:\Users\rpg26\OneDrive\Desktop\Source\VS2010\Common\fuzzy\FuzzySet_Singleton.cpp
;	COMDAT ?__empty_global_delete@@YAXPAXI@Z
_TEXT	SEGMENT
___formal$ = 8						; size = 4
___formal$ = 12						; size = 4
?__empty_global_delete@@YAXPAXI@Z PROC			; __empty_global_delete, COMDAT

	push	ebp
	mov	ebp, esp
	pop	ebp
	ret	0
?__empty_global_delete@@YAXPAXI@Z ENDP			; __empty_global_delete
_TEXT	ENDS
; Function compile flags: /Odtp /RTCsu
; File C:\Users\rpg26\OneDrive\Desktop\Source\VS2010\Common\fuzzy\FuzzySet_Singleton.cpp
;	COMDAT ?__empty_global_delete@@YAXPAX@Z
_TEXT	SEGMENT
___formal$ = 8						; size = 4
?__empty_global_delete@@YAXPAX@Z PROC			; __empty_global_delete, COMDAT

	push	ebp
	mov	ebp, esp
	pop	ebp
	ret	0
?__empty_global_delete@@YAXPAX@Z ENDP			; __empty_global_delete
_TEXT	ENDS
END
