; Listing generated by Microsoft (R) Optimizing Compiler Version 19.42.34435.0 

	TITLE	C:\Users\rpg26\OneDrive\Desktop\Source\VS2010\Buckland_Chapter7 to 10_Raven\Debug\FuzzyOperators.obj
	.686P
	.XMM
	include listing.inc
	.model	flat

INCLUDELIB LIBCMTD
INCLUDELIB OLDNAMES

CONST	SEGMENT
?_Valid_strftime_specifiers@std@@3QBDB DB 061H		; std::_Valid_strftime_specifiers
	DB	041H
	DB	062H
	DB	042H
	DB	063H
	DB	043H
	DB	064H
	DB	044H
	DB	065H
	DB	046H
	DB	067H
	DB	047H
	DB	068H
	DB	048H
	DB	049H
	DB	06aH
	DB	06dH
	DB	04dH
	DB	06eH
	DB	070H
	DB	072H
	DB	052H
	DB	053H
	DB	074H
	DB	054H
	DB	075H
	DB	055H
	DB	056H
	DB	077H
	DB	057H
	DB	078H
	DB	058H
	DB	079H
	DB	059H
	DB	07aH
	DB	05aH
$SG48034 DB	'invalid argument', 00H
	ORG $+3
$SG48035 DB	'%s', 00H
	ORG $+5
$SG48036 DB	'C:\Program Files\Microsoft Visual Studio\2022\Community\'
	DB	'VC\Tools\MSVC\14.42.34433\include\xmemory', 00H
	ORG $+6
$SG48037 DB	'C', 00H, ':', 00H, '\', 00H, 'P', 00H, 'r', 00H, 'o', 00H
	DB	'g', 00H, 'r', 00H, 'a', 00H, 'm', 00H, ' ', 00H, 'F', 00H, 'i'
	DB	00H, 'l', 00H, 'e', 00H, 's', 00H, '\', 00H, 'M', 00H, 'i', 00H
	DB	'c', 00H, 'r', 00H, 'o', 00H, 's', 00H, 'o', 00H, 'f', 00H, 't'
	DB	00H, ' ', 00H, 'V', 00H, 'i', 00H, 's', 00H, 'u', 00H, 'a', 00H
	DB	'l', 00H, ' ', 00H, 'S', 00H, 't', 00H, 'u', 00H, 'd', 00H, 'i'
	DB	00H, 'o', 00H, '\', 00H, '2', 00H, '0', 00H, '2', 00H, '2', 00H
	DB	'\', 00H, 'C', 00H, 'o', 00H, 'm', 00H, 'm', 00H, 'u', 00H, 'n'
	DB	00H, 'i', 00H, 't', 00H, 'y', 00H, '\', 00H, 'V', 00H, 'C', 00H
	DB	'\', 00H, 'T', 00H, 'o', 00H, 'o', 00H, 'l', 00H, 's', 00H, '\'
	DB	00H, 'M', 00H, 'S', 00H, 'V', 00H, 'C', 00H, '\', 00H, '1', 00H
	DB	'4', 00H, '.', 00H, '4', 00H, '2', 00H, '.', 00H, '3', 00H, '4'
	DB	00H, '4', 00H, '3', 00H, '3', 00H, '\', 00H, 'i', 00H, 'n', 00H
	DB	'c', 00H, 'l', 00H, 'u', 00H, 'd', 00H, 'e', 00H, '\', 00H, 'x'
	DB	00H, 'm', 00H, 'e', 00H, 'm', 00H, 'o', 00H, 'r', 00H, 'y', 00H
	DB	00H, 00H
$SG48038 DB	00H, 00H
	ORG $+2
$SG48039 DB	'"', 00H, 'i', 00H, 'n', 00H, 'v', 00H, 'a', 00H, 'l', 00H
	DB	'i', 00H, 'd', 00H, ' ', 00H, 'a', 00H, 'r', 00H, 'g', 00H, 'u'
	DB	00H, 'm', 00H, 'e', 00H, 'n', 00H, 't', 00H, '"', 00H, 00H, 00H
CONST	ENDS
PUBLIC	?__empty_global_delete@@YAXPAX@Z		; __empty_global_delete
PUBLIC	?__empty_global_delete@@YAXPAXI@Z		; __empty_global_delete
PUBLIC	??2@YAPAXIPAX@Z					; operator new
PUBLIC	??0exception@std@@QAE@QBDH@Z			; std::exception::exception
PUBLIC	??0exception@std@@QAE@ABV01@@Z			; std::exception::exception
PUBLIC	??1exception@std@@UAE@XZ			; std::exception::~exception
PUBLIC	?what@exception@std@@UBEPBDXZ			; std::exception::what
PUBLIC	??_Gexception@std@@UAEPAXI@Z			; std::exception::`scalar deleting destructor'
PUBLIC	??0bad_alloc@std@@AAE@QBD@Z			; std::bad_alloc::bad_alloc
PUBLIC	??1bad_alloc@std@@UAE@XZ			; std::bad_alloc::~bad_alloc
PUBLIC	??0bad_alloc@std@@QAE@ABV01@@Z			; std::bad_alloc::bad_alloc
PUBLIC	??_Gbad_alloc@std@@UAEPAXI@Z			; std::bad_alloc::`scalar deleting destructor'
PUBLIC	??0bad_array_new_length@std@@QAE@XZ		; std::bad_array_new_length::bad_array_new_length
PUBLIC	??1bad_array_new_length@std@@UAE@XZ		; std::bad_array_new_length::~bad_array_new_length
PUBLIC	??0bad_array_new_length@std@@QAE@ABV01@@Z	; std::bad_array_new_length::bad_array_new_length
PUBLIC	??_Gbad_array_new_length@std@@UAEPAXI@Z		; std::bad_array_new_length::`scalar deleting destructor'
PUBLIC	?_Throw_bad_array_new_length@std@@YAXXZ		; std::_Throw_bad_array_new_length
PUBLIC	?_Allocate@_Default_allocate_traits@std@@SAPAXI@Z ; std::_Default_allocate_traits::_Allocate
PUBLIC	?_Adjust_manually_vector_aligned@std@@YAXAAPAXAAI@Z ; std::_Adjust_manually_vector_aligned
PUBLIC	??0_Container_proxy@std@@QAE@PAU_Container_base12@1@@Z ; std::_Container_proxy::_Container_proxy
PUBLIC	??0_Container_base12@std@@QAE@XZ		; std::_Container_base12::_Container_base12
PUBLIC	?_Orphan_all@_Container_base12@std@@QAEXXZ	; std::_Container_base12::_Orphan_all
PUBLIC	?_Orphan_all_unlocked_v3@_Container_base12@std@@AAEXXZ ; std::_Container_base12::_Orphan_all_unlocked_v3
PUBLIC	?_Orphan_all_locked_v3@_Container_base12@std@@AAEXXZ ; std::_Container_base12::_Orphan_all_locked_v3
PUBLIC	??0_Iterator_base12@std@@QAE@XZ			; std::_Iterator_base12::_Iterator_base12
PUBLIC	??4_Iterator_base12@std@@QAEAAU01@ABU01@@Z	; std::_Iterator_base12::operator=
PUBLIC	??1_Iterator_base12@std@@QAE@XZ			; std::_Iterator_base12::~_Iterator_base12
PUBLIC	?_Adopt@_Iterator_base12@std@@QAEXPBU_Container_base12@2@@Z ; std::_Iterator_base12::_Adopt
PUBLIC	?_Getcont@_Iterator_base12@std@@QBEPBU_Container_base12@2@XZ ; std::_Iterator_base12::_Getcont
PUBLIC	?_Assign_unlocked@_Iterator_base12@std@@AAEXABU12@@Z ; std::_Iterator_base12::_Assign_unlocked
PUBLIC	?_Assign_locked@_Iterator_base12@std@@AAEXABU12@@Z ; std::_Iterator_base12::_Assign_locked
PUBLIC	?_Adopt_unlocked@_Iterator_base12@std@@AAEXPBU_Container_base12@2@@Z ; std::_Iterator_base12::_Adopt_unlocked
PUBLIC	?_Adopt_locked@_Iterator_base12@std@@AAEXPBU_Container_base12@2@@Z ; std::_Iterator_base12::_Adopt_locked
PUBLIC	?_Orphan_me_unlocked_v3@_Iterator_base12@std@@AAEXXZ ; std::_Iterator_base12::_Orphan_me_unlocked_v3
PUBLIC	?_Orphan_me_locked_v3@_Iterator_base12@std@@AAEXXZ ; std::_Iterator_base12::_Orphan_me_locked_v3
PUBLIC	??$exchange@PAU_Iterator_base12@std@@$$T@std@@YAPAU_Iterator_base12@0@AAPAU10@$$QA$$T@Z ; std::exchange<std::_Iterator_base12 *,std::nullptr_t>
PUBLIC	??1FuzzyTerm@@UAE@XZ				; FuzzyTerm::~FuzzyTerm
PUBLIC	??0FuzzyTerm@@QAE@XZ				; FuzzyTerm::FuzzyTerm
PUBLIC	??_GFuzzyTerm@@UAEPAXI@Z			; FuzzyTerm::`scalar deleting destructor'
PUBLIC	??0?$allocator@PAVFuzzyTerm@@@std@@QAE@XZ	; std::allocator<FuzzyTerm *>::allocator<FuzzyTerm *>
PUBLIC	?deallocate@?$allocator@PAVFuzzyTerm@@@std@@QAEXQAPAVFuzzyTerm@@I@Z ; std::allocator<FuzzyTerm *>::deallocate
PUBLIC	?allocate@?$allocator@PAVFuzzyTerm@@@std@@QAEPAPAVFuzzyTerm@@I@Z ; std::allocator<FuzzyTerm *>::allocate
PUBLIC	?max_size@?$_Default_allocator_traits@V?$allocator@PAVFuzzyTerm@@@std@@@std@@SAIABV?$allocator@PAVFuzzyTerm@@@2@@Z ; std::_Default_allocator_traits<std::allocator<FuzzyTerm *> >::max_size
PUBLIC	??0?$vector@PAVFuzzyTerm@@V?$allocator@PAVFuzzyTerm@@@std@@@std@@QAE@XZ ; std::vector<FuzzyTerm *,std::allocator<FuzzyTerm *> >::vector<FuzzyTerm *,std::allocator<FuzzyTerm *> >
PUBLIC	??1?$vector@PAVFuzzyTerm@@V?$allocator@PAVFuzzyTerm@@@std@@@std@@QAE@XZ ; std::vector<FuzzyTerm *,std::allocator<FuzzyTerm *> >::~vector<FuzzyTerm *,std::allocator<FuzzyTerm *> >
PUBLIC	?push_back@?$vector@PAVFuzzyTerm@@V?$allocator@PAVFuzzyTerm@@@std@@@std@@QAEX$$QAPAVFuzzyTerm@@@Z ; std::vector<FuzzyTerm *,std::allocator<FuzzyTerm *> >::push_back
PUBLIC	?begin@?$vector@PAVFuzzyTerm@@V?$allocator@PAVFuzzyTerm@@@std@@@std@@QAE?AV?$_Vector_iterator@V?$_Vector_val@U?$_Simple_types@PAVFuzzyTerm@@@std@@@std@@@2@XZ ; std::vector<FuzzyTerm *,std::allocator<FuzzyTerm *> >::begin
PUBLIC	?begin@?$vector@PAVFuzzyTerm@@V?$allocator@PAVFuzzyTerm@@@std@@@std@@QBE?AV?$_Vector_const_iterator@V?$_Vector_val@U?$_Simple_types@PAVFuzzyTerm@@@std@@@std@@@2@XZ ; std::vector<FuzzyTerm *,std::allocator<FuzzyTerm *> >::begin
PUBLIC	?end@?$vector@PAVFuzzyTerm@@V?$allocator@PAVFuzzyTerm@@@std@@@std@@QAE?AV?$_Vector_iterator@V?$_Vector_val@U?$_Simple_types@PAVFuzzyTerm@@@std@@@std@@@2@XZ ; std::vector<FuzzyTerm *,std::allocator<FuzzyTerm *> >::end
PUBLIC	?end@?$vector@PAVFuzzyTerm@@V?$allocator@PAVFuzzyTerm@@@std@@@std@@QBE?AV?$_Vector_const_iterator@V?$_Vector_val@U?$_Simple_types@PAVFuzzyTerm@@@std@@@std@@@2@XZ ; std::vector<FuzzyTerm *,std::allocator<FuzzyTerm *> >::end
PUBLIC	?max_size@?$vector@PAVFuzzyTerm@@V?$allocator@PAVFuzzyTerm@@@std@@@std@@QBEIXZ ; std::vector<FuzzyTerm *,std::allocator<FuzzyTerm *> >::max_size
PUBLIC	?capacity@?$vector@PAVFuzzyTerm@@V?$allocator@PAVFuzzyTerm@@@std@@@std@@QBEIXZ ; std::vector<FuzzyTerm *,std::allocator<FuzzyTerm *> >::capacity
PUBLIC	?_Calculate_growth@?$vector@PAVFuzzyTerm@@V?$allocator@PAVFuzzyTerm@@@std@@@std@@ABEII@Z ; std::vector<FuzzyTerm *,std::allocator<FuzzyTerm *> >::_Calculate_growth
PUBLIC	?_Change_array@?$vector@PAVFuzzyTerm@@V?$allocator@PAVFuzzyTerm@@@std@@@std@@AAEXQAPAVFuzzyTerm@@II@Z ; std::vector<FuzzyTerm *,std::allocator<FuzzyTerm *> >::_Change_array
PUBLIC	?_Tidy@?$vector@PAVFuzzyTerm@@V?$allocator@PAVFuzzyTerm@@@std@@@std@@AAEXXZ ; std::vector<FuzzyTerm *,std::allocator<FuzzyTerm *> >::_Tidy
PUBLIC	?_Xlength@?$vector@PAVFuzzyTerm@@V?$allocator@PAVFuzzyTerm@@@std@@@std@@CAXXZ ; std::vector<FuzzyTerm *,std::allocator<FuzzyTerm *> >::_Xlength
PUBLIC	?_Orphan_range_unlocked@?$vector@PAVFuzzyTerm@@V?$allocator@PAVFuzzyTerm@@@std@@@std@@ABEXPAPAVFuzzyTerm@@0@Z ; std::vector<FuzzyTerm *,std::allocator<FuzzyTerm *> >::_Orphan_range_unlocked
PUBLIC	?_Orphan_range_locked@?$vector@PAVFuzzyTerm@@V?$allocator@PAVFuzzyTerm@@@std@@@std@@ABEXPAPAVFuzzyTerm@@0@Z ; std::vector<FuzzyTerm *,std::allocator<FuzzyTerm *> >::_Orphan_range_locked
PUBLIC	?_Orphan_range@?$vector@PAVFuzzyTerm@@V?$allocator@PAVFuzzyTerm@@@std@@@std@@ABEXPAPAVFuzzyTerm@@0@Z ; std::vector<FuzzyTerm *,std::allocator<FuzzyTerm *> >::_Orphan_range
PUBLIC	?_Getal@?$vector@PAVFuzzyTerm@@V?$allocator@PAVFuzzyTerm@@@std@@@std@@AAEAAV?$allocator@PAVFuzzyTerm@@@2@XZ ; std::vector<FuzzyTerm *,std::allocator<FuzzyTerm *> >::_Getal
PUBLIC	?_Getal@?$vector@PAVFuzzyTerm@@V?$allocator@PAVFuzzyTerm@@@std@@@std@@ABEABV?$allocator@PAVFuzzyTerm@@@2@XZ ; std::vector<FuzzyTerm *,std::allocator<FuzzyTerm *> >::_Getal
PUBLIC	??0?$_Vector_val@U?$_Simple_types@PAVFuzzyTerm@@@std@@@std@@QAE@XZ ; std::_Vector_val<std::_Simple_types<FuzzyTerm *> >::_Vector_val<std::_Simple_types<FuzzyTerm *> >
PUBLIC	?_Get_first@?$_Compressed_pair@V?$allocator@PAVFuzzyTerm@@@std@@V?$_Vector_val@U?$_Simple_types@PAVFuzzyTerm@@@std@@@2@$00@std@@QAEAAV?$allocator@PAVFuzzyTerm@@@2@XZ ; std::_Compressed_pair<std::allocator<FuzzyTerm *>,std::_Vector_val<std::_Simple_types<FuzzyTerm *> >,1>::_Get_first
PUBLIC	?_Get_first@?$_Compressed_pair@V?$allocator@PAVFuzzyTerm@@@std@@V?$_Vector_val@U?$_Simple_types@PAVFuzzyTerm@@@std@@@2@$00@std@@QBEABV?$allocator@PAVFuzzyTerm@@@2@XZ ; std::_Compressed_pair<std::allocator<FuzzyTerm *>,std::_Vector_val<std::_Simple_types<FuzzyTerm *> >,1>::_Get_first
PUBLIC	??1FzAND@@UAE@XZ				; FzAND::~FzAND
PUBLIC	??0FzAND@@QAE@ABV0@@Z				; FzAND::FzAND
PUBLIC	??0FzAND@@QAE@AAVFuzzyTerm@@0@Z			; FzAND::FzAND
PUBLIC	??0FzAND@@QAE@AAVFuzzyTerm@@00@Z		; FzAND::FzAND
PUBLIC	??0FzAND@@QAE@AAVFuzzyTerm@@000@Z		; FzAND::FzAND
PUBLIC	?Clone@FzAND@@UBEPAVFuzzyTerm@@XZ		; FzAND::Clone
PUBLIC	?GetDOM@FzAND@@UBENXZ				; FzAND::GetDOM
PUBLIC	?ClearDOM@FzAND@@UAEXXZ				; FzAND::ClearDOM
PUBLIC	?ORwithDOM@FzAND@@UAEXN@Z			; FzAND::ORwithDOM
PUBLIC	??_GFzAND@@UAEPAXI@Z				; FzAND::`scalar deleting destructor'
PUBLIC	??1FzOR@@UAE@XZ					; FzOR::~FzOR
PUBLIC	??0FzOR@@QAE@ABV0@@Z				; FzOR::FzOR
PUBLIC	??0FzOR@@QAE@AAVFuzzyTerm@@0@Z			; FzOR::FzOR
PUBLIC	??0FzOR@@QAE@AAVFuzzyTerm@@00@Z			; FzOR::FzOR
PUBLIC	??0FzOR@@QAE@AAVFuzzyTerm@@000@Z		; FzOR::FzOR
PUBLIC	?Clone@FzOR@@UBEPAVFuzzyTerm@@XZ		; FzOR::Clone
PUBLIC	?GetDOM@FzOR@@UBENXZ				; FzOR::GetDOM
PUBLIC	?ClearDOM@FzOR@@UAEXXZ				; FzOR::ClearDOM
PUBLIC	?ORwithDOM@FzOR@@UAEXN@Z			; FzOR::ORwithDOM
PUBLIC	??_GFzOR@@UAEPAXI@Z				; FzOR::`scalar deleting destructor'
PUBLIC	??0?$_Vector_const_iterator@V?$_Vector_val@U?$_Simple_types@PAVFuzzyTerm@@@std@@@std@@@std@@QAE@XZ ; std::_Vector_const_iterator<std::_Vector_val<std::_Simple_types<FuzzyTerm *> > >::_Vector_const_iterator<std::_Vector_val<std::_Simple_types<FuzzyTerm *> > >
PUBLIC	??0?$_Vector_const_iterator@V?$_Vector_val@U?$_Simple_types@PAVFuzzyTerm@@@std@@@std@@@std@@QAE@PAPAVFuzzyTerm@@PBU_Container_base12@1@@Z ; std::_Vector_const_iterator<std::_Vector_val<std::_Simple_types<FuzzyTerm *> > >::_Vector_const_iterator<std::_Vector_val<std::_Simple_types<FuzzyTerm *> > >
PUBLIC	??D?$_Vector_const_iterator@V?$_Vector_val@U?$_Simple_types@PAVFuzzyTerm@@@std@@@std@@@std@@QBEABQAVFuzzyTerm@@XZ ; std::_Vector_const_iterator<std::_Vector_val<std::_Simple_types<FuzzyTerm *> > >::operator*
PUBLIC	??E?$_Vector_const_iterator@V?$_Vector_val@U?$_Simple_types@PAVFuzzyTerm@@@std@@@std@@@std@@QAEAAV01@XZ ; std::_Vector_const_iterator<std::_Vector_val<std::_Simple_types<FuzzyTerm *> > >::operator++
PUBLIC	??8?$_Vector_const_iterator@V?$_Vector_val@U?$_Simple_types@PAVFuzzyTerm@@@std@@@std@@@std@@QBE_NABV01@@Z ; std::_Vector_const_iterator<std::_Vector_val<std::_Simple_types<FuzzyTerm *> > >::operator==
PUBLIC	??9?$_Vector_const_iterator@V?$_Vector_val@U?$_Simple_types@PAVFuzzyTerm@@@std@@@std@@@std@@QBE_NABV01@@Z ; std::_Vector_const_iterator<std::_Vector_val<std::_Simple_types<FuzzyTerm *> > >::operator!=
PUBLIC	?_Compat@?$_Vector_const_iterator@V?$_Vector_val@U?$_Simple_types@PAVFuzzyTerm@@@std@@@std@@@std@@QBEXABV12@@Z ; std::_Vector_const_iterator<std::_Vector_val<std::_Simple_types<FuzzyTerm *> > >::_Compat
PUBLIC	??1?$_Vector_const_iterator@V?$_Vector_val@U?$_Simple_types@PAVFuzzyTerm@@@std@@@std@@@std@@QAE@XZ ; std::_Vector_const_iterator<std::_Vector_val<std::_Simple_types<FuzzyTerm *> > >::~_Vector_const_iterator<std::_Vector_val<std::_Simple_types<FuzzyTerm *> > >
PUBLIC	??4?$_Vector_const_iterator@V?$_Vector_val@U?$_Simple_types@PAVFuzzyTerm@@@std@@@std@@@std@@QAEAAV01@$$QAV01@@Z ; std::_Vector_const_iterator<std::_Vector_val<std::_Simple_types<FuzzyTerm *> > >::operator=
PUBLIC	??D?$_Vector_iterator@V?$_Vector_val@U?$_Simple_types@PAVFuzzyTerm@@@std@@@std@@@std@@QBEAAPAVFuzzyTerm@@XZ ; std::_Vector_iterator<std::_Vector_val<std::_Simple_types<FuzzyTerm *> > >::operator*
PUBLIC	??E?$_Vector_iterator@V?$_Vector_val@U?$_Simple_types@PAVFuzzyTerm@@@std@@@std@@@std@@QAEAAV01@XZ ; std::_Vector_iterator<std::_Vector_val<std::_Simple_types<FuzzyTerm *> > >::operator++
PUBLIC	??0?$_Vector_iterator@V?$_Vector_val@U?$_Simple_types@PAVFuzzyTerm@@@std@@@std@@@std@@QAE@XZ ; std::_Vector_iterator<std::_Vector_val<std::_Simple_types<FuzzyTerm *> > >::_Vector_iterator<std::_Vector_val<std::_Simple_types<FuzzyTerm *> > >
PUBLIC	??1?$_Vector_iterator@V?$_Vector_val@U?$_Simple_types@PAVFuzzyTerm@@@std@@@std@@@std@@QAE@XZ ; std::_Vector_iterator<std::_Vector_val<std::_Simple_types<FuzzyTerm *> > >::~_Vector_iterator<std::_Vector_val<std::_Simple_types<FuzzyTerm *> > >
PUBLIC	??4?$_Vector_iterator@V?$_Vector_val@U?$_Simple_types@PAVFuzzyTerm@@@std@@@std@@@std@@QAEAAV01@$$QAV01@@Z ; std::_Vector_iterator<std::_Vector_val<std::_Simple_types<FuzzyTerm *> > >::operator=
PUBLIC	??0?$_Vector_iterator@V?$_Vector_val@U?$_Simple_types@PAVFuzzyTerm@@@std@@@std@@@std@@QAE@PAPAVFuzzyTerm@@PBU_Container_base12@1@@Z ; std::_Vector_iterator<std::_Vector_val<std::_Simple_types<FuzzyTerm *> > >::_Vector_iterator<std::_Vector_val<std::_Simple_types<FuzzyTerm *> > >
PUBLIC	??$addressof@$$CBV?$_Vector_val@U?$_Simple_types@PAVFuzzyTerm@@@std@@@std@@@std@@YAPBV?$_Vector_val@U?$_Simple_types@PAVFuzzyTerm@@@std@@@0@ABV10@@Z ; std::addressof<std::_Vector_val<std::_Simple_types<FuzzyTerm *> > const >
PUBLIC	??$addressof@V?$_Vector_val@U?$_Simple_types@PAVFuzzyTerm@@@std@@@std@@@std@@YAPAV?$_Vector_val@U?$_Simple_types@PAVFuzzyTerm@@@std@@@0@AAV10@@Z ; std::addressof<std::_Vector_val<std::_Simple_types<FuzzyTerm *> > >
PUBLIC	??$move@AAPAVFuzzyTerm@@@std@@YA$$QAPAVFuzzyTerm@@AAPAV1@@Z ; std::move<FuzzyTerm * &>
PUBLIC	??$_Emplace_one_at_back@PAVFuzzyTerm@@@?$vector@PAVFuzzyTerm@@V?$allocator@PAVFuzzyTerm@@@std@@@std@@AAEAAPAVFuzzyTerm@@$$QAPAV2@@Z ; std::vector<FuzzyTerm *,std::allocator<FuzzyTerm *> >::_Emplace_one_at_back<FuzzyTerm *>
PUBLIC	?allocate@?$allocator@U_Container_proxy@std@@@std@@QAEPAU_Container_proxy@2@I@Z ; std::allocator<std::_Container_proxy>::allocate
PUBLIC	??$?0PAVFuzzyTerm@@@?$allocator@U_Container_proxy@std@@@std@@QAE@ABV?$allocator@PAVFuzzyTerm@@@1@@Z ; std::allocator<std::_Container_proxy>::allocator<std::_Container_proxy><FuzzyTerm *>
PUBLIC	??$exchange@PAU_Container_proxy@std@@$$T@std@@YAPAU_Container_proxy@0@AAPAU10@$$QA$$T@Z ; std::exchange<std::_Container_proxy *,std::nullptr_t>
PUBLIC	??$_Delete_plain_internal@V?$allocator@U_Container_proxy@std@@@std@@@std@@YAXAAV?$allocator@U_Container_proxy@std@@@0@QAU_Container_proxy@0@@Z ; std::_Delete_plain_internal<std::allocator<std::_Container_proxy> >
PUBLIC	??$?0$$V@?$_Compressed_pair@V?$allocator@PAVFuzzyTerm@@@std@@V?$_Vector_val@U?$_Simple_types@PAVFuzzyTerm@@@std@@@2@$00@std@@QAE@U_Zero_then_variadic_args_t@1@@Z ; std::_Compressed_pair<std::allocator<FuzzyTerm *>,std::_Vector_val<std::_Simple_types<FuzzyTerm *> >,1>::_Compressed_pair<std::allocator<FuzzyTerm *>,std::_Vector_val<std::_Simple_types<FuzzyTerm *> >,1><>
PUBLIC	??$_Alloc_proxy@V?$allocator@U_Container_proxy@std@@@std@@@_Container_base12@std@@QAEX$$QAV?$allocator@U_Container_proxy@std@@@1@@Z ; std::_Container_base12::_Alloc_proxy<std::allocator<std::_Container_proxy> >
PUBLIC	??$_Destroy_range@V?$allocator@PAVFuzzyTerm@@@std@@@std@@YAXPAPAVFuzzyTerm@@QAPAV1@AAV?$allocator@PAVFuzzyTerm@@@0@@Z ; std::_Destroy_range<std::allocator<FuzzyTerm *> >
PUBLIC	??$_Deallocate@$07@std@@YAXPAXI@Z		; std::_Deallocate<8>
PUBLIC	??$min@I@std@@YAABIABI0@Z			; std::min<unsigned int>
PUBLIC	??$forward@PAVFuzzyTerm@@@std@@YA$$QAPAVFuzzyTerm@@AAPAV1@@Z ; std::forward<FuzzyTerm *>
PUBLIC	??$_Emplace_back_with_unused_capacity@PAVFuzzyTerm@@@?$vector@PAVFuzzyTerm@@V?$allocator@PAVFuzzyTerm@@@std@@@std@@AAEAAPAVFuzzyTerm@@$$QAPAV2@@Z ; std::vector<FuzzyTerm *,std::allocator<FuzzyTerm *> >::_Emplace_back_with_unused_capacity<FuzzyTerm *>
PUBLIC	??$_Emplace_reallocate@PAVFuzzyTerm@@@?$vector@PAVFuzzyTerm@@V?$allocator@PAVFuzzyTerm@@@std@@@std@@AAEPAPAVFuzzyTerm@@QAPAV2@$$QAPAV2@@Z ; std::vector<FuzzyTerm *,std::allocator<FuzzyTerm *> >::_Emplace_reallocate<FuzzyTerm *>
PUBLIC	??$_Deallocate_plain@V?$allocator@U_Container_proxy@std@@@std@@@std@@YAXAAV?$allocator@U_Container_proxy@std@@@0@QAU_Container_proxy@0@@Z ; std::_Deallocate_plain<std::allocator<std::_Container_proxy> >
PUBLIC	??$_Unfancy@U_Container_proxy@std@@@std@@YAPAU_Container_proxy@0@PAU10@@Z ; std::_Unfancy<std::_Container_proxy>
PUBLIC	??$_Construct_in_place@U_Container_proxy@std@@PAU_Container_base12@2@@std@@YAXAAU_Container_proxy@0@$$QAPAU_Container_base12@0@@Z ; std::_Construct_in_place<std::_Container_proxy,std::_Container_base12 *>
PUBLIC	??$_Get_size_of_n@$07@std@@YAII@Z		; std::_Get_size_of_n<8>
PUBLIC	??$_Allocate@$07U_Default_allocate_traits@std@@@std@@YAPAXI@Z ; std::_Allocate<8,std::_Default_allocate_traits>
PUBLIC	??$_Max_limit@H@std@@YAHXZ			; std::_Max_limit<int>
PUBLIC	??$_Construct_in_place@PAVFuzzyTerm@@PAV1@@std@@YAXAAPAVFuzzyTerm@@$$QAPAV1@@Z ; std::_Construct_in_place<FuzzyTerm *,FuzzyTerm *>
PUBLIC	??$_Allocate_at_least_helper@V?$allocator@PAVFuzzyTerm@@@std@@@std@@YAPAPAVFuzzyTerm@@AAV?$allocator@PAVFuzzyTerm@@@0@AAI@Z ; std::_Allocate_at_least_helper<std::allocator<FuzzyTerm *> >
PUBLIC	??$_Unfancy@PAVFuzzyTerm@@@std@@YAPAPAVFuzzyTerm@@PAPAV1@@Z ; std::_Unfancy<FuzzyTerm *>
PUBLIC	??$construct@PAVFuzzyTerm@@PAV1@@?$_Default_allocator_traits@V?$allocator@PAVFuzzyTerm@@@std@@@std@@SAXAAV?$allocator@PAVFuzzyTerm@@@1@QAPAVFuzzyTerm@@$$QAPAV3@@Z ; std::_Default_allocator_traits<std::allocator<FuzzyTerm *> >::construct<FuzzyTerm *,FuzzyTerm *>
PUBLIC	??$_Uninitialized_move@PAPAVFuzzyTerm@@V?$allocator@PAVFuzzyTerm@@@std@@@std@@YAPAPAVFuzzyTerm@@QAPAV1@0PAPAV1@AAV?$allocator@PAVFuzzyTerm@@@0@@Z ; std::_Uninitialized_move<FuzzyTerm * *,std::allocator<FuzzyTerm *> >
PUBLIC	?deallocate@?$_Default_allocator_traits@V?$allocator@U_Container_proxy@std@@@std@@@std@@SAXAAV?$allocator@U_Container_proxy@std@@@2@QAU_Container_proxy@2@I@Z ; std::_Default_allocator_traits<std::allocator<std::_Container_proxy> >::deallocate
PUBLIC	??$addressof@U_Container_proxy@std@@@std@@YAPAU_Container_proxy@0@AAU10@@Z ; std::addressof<std::_Container_proxy>
PUBLIC	??$forward@PAU_Container_base12@std@@@std@@YA$$QAPAU_Container_base12@0@AAPAU10@@Z ; std::forward<std::_Container_base12 *>
PUBLIC	??$_Allocate_manually_vector_aligned@U_Default_allocate_traits@std@@@std@@YAPAXI@Z ; std::_Allocate_manually_vector_aligned<std::_Default_allocate_traits>
PUBLIC	??$addressof@PAVFuzzyTerm@@@std@@YAPAPAVFuzzyTerm@@AAPAV1@@Z ; std::addressof<FuzzyTerm *>
PUBLIC	??$_Get_unwrapped@ABQAPAVFuzzyTerm@@@std@@YA?A_TABQAPAVFuzzyTerm@@@Z ; std::_Get_unwrapped<FuzzyTerm * * const &>
PUBLIC	??$_Copy_memmove@PAPAVFuzzyTerm@@PAPAV1@@std@@YAPAPAVFuzzyTerm@@PAPAV1@00@Z ; std::_Copy_memmove<FuzzyTerm * *,FuzzyTerm * *>
PUBLIC	??0?$_Uninitialized_backout_al@V?$allocator@PAVFuzzyTerm@@@std@@@std@@QAE@PAPAVFuzzyTerm@@AAV?$allocator@PAVFuzzyTerm@@@1@@Z ; std::_Uninitialized_backout_al<std::allocator<FuzzyTerm *> >::_Uninitialized_backout_al<std::allocator<FuzzyTerm *> >
PUBLIC	??1?$_Uninitialized_backout_al@V?$allocator@PAVFuzzyTerm@@@std@@@std@@QAE@XZ ; std::_Uninitialized_backout_al<std::allocator<FuzzyTerm *> >::~_Uninitialized_backout_al<std::allocator<FuzzyTerm *> >
PUBLIC	?_Release@?$_Uninitialized_backout_al@V?$allocator@PAVFuzzyTerm@@@std@@@std@@QAEPAPAVFuzzyTerm@@XZ ; std::_Uninitialized_backout_al<std::allocator<FuzzyTerm *> >::_Release
PUBLIC	??$_Emplace_back@PAVFuzzyTerm@@@?$_Uninitialized_backout_al@V?$allocator@PAVFuzzyTerm@@@std@@@std@@QAEX$$QAPAVFuzzyTerm@@@Z ; std::_Uninitialized_backout_al<std::allocator<FuzzyTerm *> >::_Emplace_back<FuzzyTerm *>
PUBLIC	??$_Get_size_of_n@$03@std@@YAII@Z		; std::_Get_size_of_n<4>
PUBLIC	??$_To_address@PAPAVFuzzyTerm@@@std@@YA?A_PABQAPAVFuzzyTerm@@@Z ; std::_To_address<FuzzyTerm * *>
PUBLIC	??_7exception@std@@6B@				; std::exception::`vftable'
PUBLIC	??_C@_0BC@EOODALEL@Unknown?5exception@		; `string'
PUBLIC	??_7bad_alloc@std@@6B@				; std::bad_alloc::`vftable'
PUBLIC	??_7bad_array_new_length@std@@6B@		; std::bad_array_new_length::`vftable'
PUBLIC	??_C@_0BF@KINCDENJ@bad?5array?5new?5length@	; `string'
PUBLIC	??_R0?AVexception@std@@@8			; std::exception `RTTI Type Descriptor'
PUBLIC	__CT??_R0?AVexception@std@@@8??0exception@std@@QAE@ABV01@@Z12
PUBLIC	__TI3?AVbad_array_new_length@std@@
PUBLIC	__CTA3?AVbad_array_new_length@std@@
PUBLIC	??_R0?AVbad_array_new_length@std@@@8		; std::bad_array_new_length `RTTI Type Descriptor'
PUBLIC	__CT??_R0?AVbad_array_new_length@std@@@8??0bad_array_new_length@std@@QAE@ABV01@@Z12
PUBLIC	??_R0?AVbad_alloc@std@@@8			; std::bad_alloc `RTTI Type Descriptor'
PUBLIC	__CT??_R0?AVbad_alloc@std@@@8??0bad_alloc@std@@QAE@ABV01@@Z12
PUBLIC	??_C@_0BB@FCMFBGOM@invalid?5argument@		; `string'
PUBLIC	??_C@_02DKCKIIND@?$CFs@				; `string'
PUBLIC	??_C@_0GC@KIHIELAM@C?3?2Program?5Files?2Microsoft?5Visu@ ; `string'
PUBLIC	??_C@_1ME@NMPKGKJL@?$AAC?$AA?3?$AA?2?$AAP?$AAr?$AAo?$AAg?$AAr?$AAa?$AAm?$AA?5?$AAF?$AAi?$AAl?$AAe@ ; `string'
PUBLIC	??_C@_11LOCGONAA@@				; `string'
PUBLIC	??_C@_1CG@JNLFBNGN@?$AA?$CC?$AAi?$AAn?$AAv?$AAa?$AAl?$AAi?$AAd?$AA?5?$AAa?$AAr?$AAg?$AAu?$AAm?$AAe@ ; `string'
PUBLIC	??_C@_0BJ@LFDBABJJ@ITERATOR?5LIST?5CORRUPTED?$CB@ ; `string'
PUBLIC	??_C@_1DG@PLBPCAEM@?$AA?$CC?$AAI?$AAT?$AAE?$AAR?$AAA?$AAT?$AAO?$AAR?$AA?5?$AAL?$AAI?$AAS?$AAT?$AA?5@ ; `string'
PUBLIC	??_7FuzzyTerm@@6B@				; FuzzyTerm::`vftable'
PUBLIC	??_7FzAND@@6B@					; FzAND::`vftable'
PUBLIC	??_7FzOR@@6B@					; FzOR::`vftable'
PUBLIC	??_C@_1JI@ONAHGKND@?$AAC?$AA?3?$AA?2?$AAU?$AAs?$AAe?$AAr?$AAs?$AA?2?$AAr?$AAp?$AAg?$AA2?$AA6?$AA?2@ ; `string'
PUBLIC	??_C@_1FC@EJGEACIH@?$AA0?$AA?5?$AA?$CG?$AA?$CG?$AA?5?$AA?$CC?$AA?$DM?$AAF?$AAz?$AAO?$AAR?$AA?3?$AA?3?$AAC?$AAl@ ; `string'
PUBLIC	??_C@_1FE@EKNHDPMB@?$AA0?$AA?5?$AA?$CG?$AA?$CG?$AA?5?$AA?$CC?$AA?$DM?$AAF?$AAz?$AAO?$AAR?$AA?3?$AA?3?$AAO?$AAR@ ; `string'
PUBLIC	??_C@_0DC@KEKNBAEB@can?8t?5increment?5value?9initializ@ ; `string'
PUBLIC	??_C@_0GB@CIHAIELA@C?3?2Program?5Files?2Microsoft?5Visu@ ; `string'
PUBLIC	??_C@_1MC@ODEKBODI@?$AAC?$AA?3?$AA?2?$AAP?$AAr?$AAo?$AAg?$AAr?$AAa?$AAm?$AA?5?$AAF?$AAi?$AAl?$AAe@ ; `string'
PUBLIC	??_C@_1GI@EDCILPL@?$AA?$CC?$AAc?$AAa?$AAn?$AA?8?$AAt?$AA?5?$AAi?$AAn?$AAc?$AAr?$AAe?$AAm?$AAe?$AAn@ ; `string'
PUBLIC	??_C@_0CM@MNNBKIBC@can?8t?5increment?5invalidated?5vec@ ; `string'
PUBLIC	??_C@_1FM@ICPJNHLL@?$AA?$CC?$AAc?$AAa?$AAn?$AA?8?$AAt?$AA?5?$AAi?$AAn?$AAc?$AAr?$AAe?$AAm?$AAe?$AAn@ ; `string'
PUBLIC	??_C@_0CJ@OAAAAGPM@can?8t?5increment?5vector?5iterator@ ; `string'
PUBLIC	??_C@_1FG@LDPPKMGP@?$AA?$CC?$AAc?$AAa?$AAn?$AA?8?$AAt?$AA?5?$AAi?$AAn?$AAc?$AAr?$AAe?$AAm?$AAe?$AAn@ ; `string'
PUBLIC	??_C@_0DE@CHADHGFF@can?8t?5dereference?5value?9initial@ ; `string'
PUBLIC	??_C@_1GM@FNBFNBEL@?$AA?$CC?$AAc?$AAa?$AAn?$AA?8?$AAt?$AA?5?$AAd?$AAe?$AAr?$AAe?$AAf?$AAe?$AAr?$AAe@ ; `string'
PUBLIC	??_C@_0CO@PGFNEDAH@can?8t?5dereference?5invalidated?5v@ ; `string'
PUBLIC	??_C@_1GA@CLCDIGKJ@?$AA?$CC?$AAc?$AAa?$AAn?$AA?8?$AAt?$AA?5?$AAd?$AAe?$AAr?$AAe?$AAf?$AAe?$AAr?$AAe@ ; `string'
PUBLIC	??_C@_0CP@MDHADBHN@can?8t?5dereference?5out?5of?5range?5@ ; `string'
PUBLIC	??_C@_1GC@JDCKOLAC@?$AA?$CC?$AAc?$AAa?$AAn?$AA?8?$AAt?$AA?5?$AAd?$AAe?$AAr?$AAe?$AAf?$AAe?$AAr?$AAe@ ; `string'
PUBLIC	??_C@_0BO@CAOBBIOC@vector?5iterators?5incompatible@ ; `string'
PUBLIC	??_C@_1EA@DJDGNIII@?$AA?$CC?$AAv?$AAe?$AAc?$AAt?$AAo?$AAr?$AA?5?$AAi?$AAt?$AAe?$AAr?$AAa?$AAt?$AAo@ ; `string'
PUBLIC	??_C@_0DG@KGHKKGBC@null?5pointer?5cannot?5point?5to?5a?5@ ; `string'
PUBLIC	??_C@_1HA@FACCKGGH@?$AA?$CC?$AAn?$AAu?$AAl?$AAl?$AA?5?$AAp?$AAo?$AAi?$AAn?$AAt?$AAe?$AAr?$AA?5?$AAc@ ; `string'
PUBLIC	??_C@_0BA@FOIKENOD@vector?5too?5long@		; `string'
PUBLIC	??_R4exception@std@@6B@				; std::exception::`RTTI Complete Object Locator'
PUBLIC	??_R3exception@std@@8				; std::exception::`RTTI Class Hierarchy Descriptor'
PUBLIC	??_R2exception@std@@8				; std::exception::`RTTI Base Class Array'
PUBLIC	??_R1A@?0A@EA@exception@std@@8			; std::exception::`RTTI Base Class Descriptor at (0,-1,0,64)'
PUBLIC	??_R4bad_array_new_length@std@@6B@		; std::bad_array_new_length::`RTTI Complete Object Locator'
PUBLIC	??_R3bad_array_new_length@std@@8		; std::bad_array_new_length::`RTTI Class Hierarchy Descriptor'
PUBLIC	??_R2bad_array_new_length@std@@8		; std::bad_array_new_length::`RTTI Base Class Array'
PUBLIC	??_R1A@?0A@EA@bad_array_new_length@std@@8	; std::bad_array_new_length::`RTTI Base Class Descriptor at (0,-1,0,64)'
PUBLIC	??_R1A@?0A@EA@bad_alloc@std@@8			; std::bad_alloc::`RTTI Base Class Descriptor at (0,-1,0,64)'
PUBLIC	??_R3bad_alloc@std@@8				; std::bad_alloc::`RTTI Class Hierarchy Descriptor'
PUBLIC	??_R2bad_alloc@std@@8				; std::bad_alloc::`RTTI Base Class Array'
PUBLIC	??_R4bad_alloc@std@@6B@				; std::bad_alloc::`RTTI Complete Object Locator'
PUBLIC	??_R4FuzzyTerm@@6B@				; FuzzyTerm::`RTTI Complete Object Locator'
PUBLIC	??_R0?AVFuzzyTerm@@@8				; FuzzyTerm `RTTI Type Descriptor'
PUBLIC	??_R3FuzzyTerm@@8				; FuzzyTerm::`RTTI Class Hierarchy Descriptor'
PUBLIC	??_R2FuzzyTerm@@8				; FuzzyTerm::`RTTI Base Class Array'
PUBLIC	??_R1A@?0A@EA@FuzzyTerm@@8			; FuzzyTerm::`RTTI Base Class Descriptor at (0,-1,0,64)'
PUBLIC	??_R4FzAND@@6B@					; FzAND::`RTTI Complete Object Locator'
PUBLIC	??_R0?AVFzAND@@@8				; FzAND `RTTI Type Descriptor'
PUBLIC	??_R3FzAND@@8					; FzAND::`RTTI Class Hierarchy Descriptor'
PUBLIC	??_R2FzAND@@8					; FzAND::`RTTI Base Class Array'
PUBLIC	??_R1A@?0A@EA@FzAND@@8				; FzAND::`RTTI Base Class Descriptor at (0,-1,0,64)'
PUBLIC	??_R4FzOR@@6B@					; FzOR::`RTTI Complete Object Locator'
PUBLIC	??_R0?AVFzOR@@@8				; FzOR `RTTI Type Descriptor'
PUBLIC	??_R3FzOR@@8					; FzOR::`RTTI Class Hierarchy Descriptor'
PUBLIC	??_R2FzOR@@8					; FzOR::`RTTI Base Class Array'
PUBLIC	??_R1A@?0A@EA@FzOR@@8				; FzOR::`RTTI Base Class Descriptor at (0,-1,0,64)'
PUBLIC	__real@3810000000000000
PUBLIC	__real@7fefffffffffffff
EXTRN	__purecall:PROC
EXTRN	??2@YAPAXI@Z:PROC				; operator new
EXTRN	??3@YAXPAXI@Z:PROC				; operator delete
EXTRN	__invalid_parameter:PROC
EXTRN	_memmove:PROC
EXTRN	__CrtDbgReport:PROC
EXTRN	??0_Lockit@std@@QAE@H@Z:PROC			; std::_Lockit::_Lockit
EXTRN	??1_Lockit@std@@QAE@XZ:PROC			; std::_Lockit::~_Lockit
EXTRN	___std_exception_copy:PROC
EXTRN	___std_exception_destroy:PROC
EXTRN	??_Eexception@std@@UAEPAXI@Z:PROC		; std::exception::`vector deleting destructor'
EXTRN	??_Ebad_alloc@std@@UAEPAXI@Z:PROC		; std::bad_alloc::`vector deleting destructor'
EXTRN	??_Ebad_array_new_length@std@@UAEPAXI@Z:PROC	; std::bad_array_new_length::`vector deleting destructor'
EXTRN	?_Xlength_error@std@@YAXPBD@Z:PROC		; std::_Xlength_error
EXTRN	__wassert:PROC
EXTRN	??_EFuzzyTerm@@UAEPAXI@Z:PROC			; FuzzyTerm::`vector deleting destructor'
EXTRN	??_EFzAND@@UAEPAXI@Z:PROC			; FzAND::`vector deleting destructor'
EXTRN	??_EFzOR@@UAEPAXI@Z:PROC			; FzOR::`vector deleting destructor'
EXTRN	@_RTC_CheckStackVars@8:PROC
EXTRN	@__security_check_cookie@4:PROC
EXTRN	__CxxThrowException@8:PROC
EXTRN	__RTC_CheckEsp:PROC
EXTRN	__RTC_InitBase:PROC
EXTRN	__RTC_Shutdown:PROC
EXTRN	___CxxFrameHandler3:PROC
EXTRN	??_7type_info@@6B@:QWORD			; type_info::`vftable'
EXTRN	___security_cookie:DWORD
EXTRN	__fltused:DWORD
;	COMDAT __real@7fefffffffffffff
CONST	SEGMENT
__real@7fefffffffffffff DQ 07fefffffffffffffr	; 1.79769e+308
CONST	ENDS
;	COMDAT __real@3810000000000000
CONST	SEGMENT
__real@3810000000000000 DQ 03810000000000000r	; 1.17549e-38
CONST	ENDS
;	COMDAT rtc$TMZ
rtc$TMZ	SEGMENT
__RTC_Shutdown.rtc$TMZ DD FLAT:__RTC_Shutdown
rtc$TMZ	ENDS
;	COMDAT rtc$IMZ
rtc$IMZ	SEGMENT
__RTC_InitBase.rtc$IMZ DD FLAT:__RTC_InitBase
rtc$IMZ	ENDS
;	COMDAT ??_R1A@?0A@EA@FzOR@@8
rdata$r	SEGMENT
??_R1A@?0A@EA@FzOR@@8 DD FLAT:??_R0?AVFzOR@@@8		; FzOR::`RTTI Base Class Descriptor at (0,-1,0,64)'
	DD	01H
	DD	00H
	DD	0ffffffffH
	DD	00H
	DD	040H
	DD	FLAT:??_R3FzOR@@8
rdata$r	ENDS
;	COMDAT ??_R2FzOR@@8
rdata$r	SEGMENT
??_R2FzOR@@8 DD	FLAT:??_R1A@?0A@EA@FzOR@@8		; FzOR::`RTTI Base Class Array'
	DD	FLAT:??_R1A@?0A@EA@FuzzyTerm@@8
rdata$r	ENDS
;	COMDAT ??_R3FzOR@@8
rdata$r	SEGMENT
??_R3FzOR@@8 DD	00H					; FzOR::`RTTI Class Hierarchy Descriptor'
	DD	00H
	DD	02H
	DD	FLAT:??_R2FzOR@@8
rdata$r	ENDS
;	COMDAT ??_R0?AVFzOR@@@8
data$rs	SEGMENT
??_R0?AVFzOR@@@8 DD FLAT:??_7type_info@@6B@		; FzOR `RTTI Type Descriptor'
	DD	00H
	DB	'.?AVFzOR@@', 00H
data$rs	ENDS
;	COMDAT ??_R4FzOR@@6B@
rdata$r	SEGMENT
??_R4FzOR@@6B@ DD 00H					; FzOR::`RTTI Complete Object Locator'
	DD	00H
	DD	00H
	DD	FLAT:??_R0?AVFzOR@@@8
	DD	FLAT:??_R3FzOR@@8
rdata$r	ENDS
;	COMDAT ??_R1A@?0A@EA@FzAND@@8
rdata$r	SEGMENT
??_R1A@?0A@EA@FzAND@@8 DD FLAT:??_R0?AVFzAND@@@8	; FzAND::`RTTI Base Class Descriptor at (0,-1,0,64)'
	DD	01H
	DD	00H
	DD	0ffffffffH
	DD	00H
	DD	040H
	DD	FLAT:??_R3FzAND@@8
rdata$r	ENDS
;	COMDAT ??_R2FzAND@@8
rdata$r	SEGMENT
??_R2FzAND@@8 DD FLAT:??_R1A@?0A@EA@FzAND@@8		; FzAND::`RTTI Base Class Array'
	DD	FLAT:??_R1A@?0A@EA@FuzzyTerm@@8
rdata$r	ENDS
;	COMDAT ??_R3FzAND@@8
rdata$r	SEGMENT
??_R3FzAND@@8 DD 00H					; FzAND::`RTTI Class Hierarchy Descriptor'
	DD	00H
	DD	02H
	DD	FLAT:??_R2FzAND@@8
rdata$r	ENDS
;	COMDAT ??_R0?AVFzAND@@@8
data$rs	SEGMENT
??_R0?AVFzAND@@@8 DD FLAT:??_7type_info@@6B@		; FzAND `RTTI Type Descriptor'
	DD	00H
	DB	'.?AVFzAND@@', 00H
data$rs	ENDS
;	COMDAT ??_R4FzAND@@6B@
rdata$r	SEGMENT
??_R4FzAND@@6B@ DD 00H					; FzAND::`RTTI Complete Object Locator'
	DD	00H
	DD	00H
	DD	FLAT:??_R0?AVFzAND@@@8
	DD	FLAT:??_R3FzAND@@8
rdata$r	ENDS
;	COMDAT ??_R1A@?0A@EA@FuzzyTerm@@8
rdata$r	SEGMENT
??_R1A@?0A@EA@FuzzyTerm@@8 DD FLAT:??_R0?AVFuzzyTerm@@@8 ; FuzzyTerm::`RTTI Base Class Descriptor at (0,-1,0,64)'
	DD	00H
	DD	00H
	DD	0ffffffffH
	DD	00H
	DD	040H
	DD	FLAT:??_R3FuzzyTerm@@8
rdata$r	ENDS
;	COMDAT ??_R2FuzzyTerm@@8
rdata$r	SEGMENT
??_R2FuzzyTerm@@8 DD FLAT:??_R1A@?0A@EA@FuzzyTerm@@8	; FuzzyTerm::`RTTI Base Class Array'
rdata$r	ENDS
;	COMDAT ??_R3FuzzyTerm@@8
rdata$r	SEGMENT
??_R3FuzzyTerm@@8 DD 00H				; FuzzyTerm::`RTTI Class Hierarchy Descriptor'
	DD	00H
	DD	01H
	DD	FLAT:??_R2FuzzyTerm@@8
rdata$r	ENDS
;	COMDAT ??_R0?AVFuzzyTerm@@@8
data$rs	SEGMENT
??_R0?AVFuzzyTerm@@@8 DD FLAT:??_7type_info@@6B@	; FuzzyTerm `RTTI Type Descriptor'
	DD	00H
	DB	'.?AVFuzzyTerm@@', 00H
data$rs	ENDS
;	COMDAT ??_R4FuzzyTerm@@6B@
rdata$r	SEGMENT
??_R4FuzzyTerm@@6B@ DD 00H				; FuzzyTerm::`RTTI Complete Object Locator'
	DD	00H
	DD	00H
	DD	FLAT:??_R0?AVFuzzyTerm@@@8
	DD	FLAT:??_R3FuzzyTerm@@8
rdata$r	ENDS
;	COMDAT ??_R4bad_alloc@std@@6B@
rdata$r	SEGMENT
??_R4bad_alloc@std@@6B@ DD 00H				; std::bad_alloc::`RTTI Complete Object Locator'
	DD	00H
	DD	00H
	DD	FLAT:??_R0?AVbad_alloc@std@@@8
	DD	FLAT:??_R3bad_alloc@std@@8
rdata$r	ENDS
;	COMDAT ??_R2bad_alloc@std@@8
rdata$r	SEGMENT
??_R2bad_alloc@std@@8 DD FLAT:??_R1A@?0A@EA@bad_alloc@std@@8 ; std::bad_alloc::`RTTI Base Class Array'
	DD	FLAT:??_R1A@?0A@EA@exception@std@@8
rdata$r	ENDS
;	COMDAT ??_R3bad_alloc@std@@8
rdata$r	SEGMENT
??_R3bad_alloc@std@@8 DD 00H				; std::bad_alloc::`RTTI Class Hierarchy Descriptor'
	DD	00H
	DD	02H
	DD	FLAT:??_R2bad_alloc@std@@8
rdata$r	ENDS
;	COMDAT ??_R1A@?0A@EA@bad_alloc@std@@8
rdata$r	SEGMENT
??_R1A@?0A@EA@bad_alloc@std@@8 DD FLAT:??_R0?AVbad_alloc@std@@@8 ; std::bad_alloc::`RTTI Base Class Descriptor at (0,-1,0,64)'
	DD	01H
	DD	00H
	DD	0ffffffffH
	DD	00H
	DD	040H
	DD	FLAT:??_R3bad_alloc@std@@8
rdata$r	ENDS
;	COMDAT ??_R1A@?0A@EA@bad_array_new_length@std@@8
rdata$r	SEGMENT
??_R1A@?0A@EA@bad_array_new_length@std@@8 DD FLAT:??_R0?AVbad_array_new_length@std@@@8 ; std::bad_array_new_length::`RTTI Base Class Descriptor at (0,-1,0,64)'
	DD	02H
	DD	00H
	DD	0ffffffffH
	DD	00H
	DD	040H
	DD	FLAT:??_R3bad_array_new_length@std@@8
rdata$r	ENDS
;	COMDAT ??_R2bad_array_new_length@std@@8
rdata$r	SEGMENT
??_R2bad_array_new_length@std@@8 DD FLAT:??_R1A@?0A@EA@bad_array_new_length@std@@8 ; std::bad_array_new_length::`RTTI Base Class Array'
	DD	FLAT:??_R1A@?0A@EA@bad_alloc@std@@8
	DD	FLAT:??_R1A@?0A@EA@exception@std@@8
rdata$r	ENDS
;	COMDAT ??_R3bad_array_new_length@std@@8
rdata$r	SEGMENT
??_R3bad_array_new_length@std@@8 DD 00H			; std::bad_array_new_length::`RTTI Class Hierarchy Descriptor'
	DD	00H
	DD	03H
	DD	FLAT:??_R2bad_array_new_length@std@@8
rdata$r	ENDS
;	COMDAT ??_R4bad_array_new_length@std@@6B@
rdata$r	SEGMENT
??_R4bad_array_new_length@std@@6B@ DD 00H		; std::bad_array_new_length::`RTTI Complete Object Locator'
	DD	00H
	DD	00H
	DD	FLAT:??_R0?AVbad_array_new_length@std@@@8
	DD	FLAT:??_R3bad_array_new_length@std@@8
rdata$r	ENDS
;	COMDAT ??_R1A@?0A@EA@exception@std@@8
rdata$r	SEGMENT
??_R1A@?0A@EA@exception@std@@8 DD FLAT:??_R0?AVexception@std@@@8 ; std::exception::`RTTI Base Class Descriptor at (0,-1,0,64)'
	DD	00H
	DD	00H
	DD	0ffffffffH
	DD	00H
	DD	040H
	DD	FLAT:??_R3exception@std@@8
rdata$r	ENDS
;	COMDAT ??_R2exception@std@@8
rdata$r	SEGMENT
??_R2exception@std@@8 DD FLAT:??_R1A@?0A@EA@exception@std@@8 ; std::exception::`RTTI Base Class Array'
rdata$r	ENDS
;	COMDAT ??_R3exception@std@@8
rdata$r	SEGMENT
??_R3exception@std@@8 DD 00H				; std::exception::`RTTI Class Hierarchy Descriptor'
	DD	00H
	DD	01H
	DD	FLAT:??_R2exception@std@@8
rdata$r	ENDS
;	COMDAT ??_R4exception@std@@6B@
rdata$r	SEGMENT
??_R4exception@std@@6B@ DD 00H				; std::exception::`RTTI Complete Object Locator'
	DD	00H
	DD	00H
	DD	FLAT:??_R0?AVexception@std@@@8
	DD	FLAT:??_R3exception@std@@8
rdata$r	ENDS
;	COMDAT ??_C@_0BA@FOIKENOD@vector?5too?5long@
CONST	SEGMENT
??_C@_0BA@FOIKENOD@vector?5too?5long@ DB 'vector too long', 00H ; `string'
CONST	ENDS
;	COMDAT ??_C@_1HA@FACCKGGH@?$AA?$CC?$AAn?$AAu?$AAl?$AAl?$AA?5?$AAp?$AAo?$AAi?$AAn?$AAt?$AAe?$AAr?$AA?5?$AAc@
CONST	SEGMENT
??_C@_1HA@FACCKGGH@?$AA?$CC?$AAn?$AAu?$AAl?$AAl?$AA?5?$AAp?$AAo?$AAi?$AAn?$AAt?$AAe?$AAr?$AA?5?$AAc@ DB '"'
	DB	00H, 'n', 00H, 'u', 00H, 'l', 00H, 'l', 00H, ' ', 00H, 'p', 00H
	DB	'o', 00H, 'i', 00H, 'n', 00H, 't', 00H, 'e', 00H, 'r', 00H, ' '
	DB	00H, 'c', 00H, 'a', 00H, 'n', 00H, 'n', 00H, 'o', 00H, 't', 00H
	DB	' ', 00H, 'p', 00H, 'o', 00H, 'i', 00H, 'n', 00H, 't', 00H, ' '
	DB	00H, 't', 00H, 'o', 00H, ' ', 00H, 'a', 00H, ' ', 00H, 'b', 00H
	DB	'l', 00H, 'o', 00H, 'c', 00H, 'k', 00H, ' ', 00H, 'o', 00H, 'f'
	DB	00H, ' ', 00H, 'n', 00H, 'o', 00H, 'n', 00H, '-', 00H, 'z', 00H
	DB	'e', 00H, 'r', 00H, 'o', 00H, ' ', 00H, 's', 00H, 'i', 00H, 'z'
	DB	00H, 'e', 00H, '"', 00H, 00H, 00H		; `string'
CONST	ENDS
;	COMDAT ??_C@_0DG@KGHKKGBC@null?5pointer?5cannot?5point?5to?5a?5@
CONST	SEGMENT
??_C@_0DG@KGHKKGBC@null?5pointer?5cannot?5point?5to?5a?5@ DB 'null pointe'
	DB	'r cannot point to a block of non-zero size', 00H ; `string'
CONST	ENDS
;	COMDAT ??_C@_1EA@DJDGNIII@?$AA?$CC?$AAv?$AAe?$AAc?$AAt?$AAo?$AAr?$AA?5?$AAi?$AAt?$AAe?$AAr?$AAa?$AAt?$AAo@
CONST	SEGMENT
??_C@_1EA@DJDGNIII@?$AA?$CC?$AAv?$AAe?$AAc?$AAt?$AAo?$AAr?$AA?5?$AAi?$AAt?$AAe?$AAr?$AAa?$AAt?$AAo@ DB '"'
	DB	00H, 'v', 00H, 'e', 00H, 'c', 00H, 't', 00H, 'o', 00H, 'r', 00H
	DB	' ', 00H, 'i', 00H, 't', 00H, 'e', 00H, 'r', 00H, 'a', 00H, 't'
	DB	00H, 'o', 00H, 'r', 00H, 's', 00H, ' ', 00H, 'i', 00H, 'n', 00H
	DB	'c', 00H, 'o', 00H, 'm', 00H, 'p', 00H, 'a', 00H, 't', 00H, 'i'
	DB	00H, 'b', 00H, 'l', 00H, 'e', 00H, '"', 00H, 00H, 00H ; `string'
CONST	ENDS
;	COMDAT ??_C@_0BO@CAOBBIOC@vector?5iterators?5incompatible@
CONST	SEGMENT
??_C@_0BO@CAOBBIOC@vector?5iterators?5incompatible@ DB 'vector iterators '
	DB	'incompatible', 00H				; `string'
CONST	ENDS
;	COMDAT ??_C@_1GC@JDCKOLAC@?$AA?$CC?$AAc?$AAa?$AAn?$AA?8?$AAt?$AA?5?$AAd?$AAe?$AAr?$AAe?$AAf?$AAe?$AAr?$AAe@
CONST	SEGMENT
??_C@_1GC@JDCKOLAC@?$AA?$CC?$AAc?$AAa?$AAn?$AA?8?$AAt?$AA?5?$AAd?$AAe?$AAr?$AAe?$AAf?$AAe?$AAr?$AAe@ DB '"'
	DB	00H, 'c', 00H, 'a', 00H, 'n', 00H, '''', 00H, 't', 00H, ' ', 00H
	DB	'd', 00H, 'e', 00H, 'r', 00H, 'e', 00H, 'f', 00H, 'e', 00H, 'r'
	DB	00H, 'e', 00H, 'n', 00H, 'c', 00H, 'e', 00H, ' ', 00H, 'o', 00H
	DB	'u', 00H, 't', 00H, ' ', 00H, 'o', 00H, 'f', 00H, ' ', 00H, 'r'
	DB	00H, 'a', 00H, 'n', 00H, 'g', 00H, 'e', 00H, ' ', 00H, 'v', 00H
	DB	'e', 00H, 'c', 00H, 't', 00H, 'o', 00H, 'r', 00H, ' ', 00H, 'i'
	DB	00H, 't', 00H, 'e', 00H, 'r', 00H, 'a', 00H, 't', 00H, 'o', 00H
	DB	'r', 00H, '"', 00H, 00H, 00H			; `string'
CONST	ENDS
;	COMDAT ??_C@_0CP@MDHADBHN@can?8t?5dereference?5out?5of?5range?5@
CONST	SEGMENT
??_C@_0CP@MDHADBHN@can?8t?5dereference?5out?5of?5range?5@ DB 'can''t dere'
	DB	'ference out of range vector iterator', 00H	; `string'
CONST	ENDS
;	COMDAT ??_C@_1GA@CLCDIGKJ@?$AA?$CC?$AAc?$AAa?$AAn?$AA?8?$AAt?$AA?5?$AAd?$AAe?$AAr?$AAe?$AAf?$AAe?$AAr?$AAe@
CONST	SEGMENT
??_C@_1GA@CLCDIGKJ@?$AA?$CC?$AAc?$AAa?$AAn?$AA?8?$AAt?$AA?5?$AAd?$AAe?$AAr?$AAe?$AAf?$AAe?$AAr?$AAe@ DB '"'
	DB	00H, 'c', 00H, 'a', 00H, 'n', 00H, '''', 00H, 't', 00H, ' ', 00H
	DB	'd', 00H, 'e', 00H, 'r', 00H, 'e', 00H, 'f', 00H, 'e', 00H, 'r'
	DB	00H, 'e', 00H, 'n', 00H, 'c', 00H, 'e', 00H, ' ', 00H, 'i', 00H
	DB	'n', 00H, 'v', 00H, 'a', 00H, 'l', 00H, 'i', 00H, 'd', 00H, 'a'
	DB	00H, 't', 00H, 'e', 00H, 'd', 00H, ' ', 00H, 'v', 00H, 'e', 00H
	DB	'c', 00H, 't', 00H, 'o', 00H, 'r', 00H, ' ', 00H, 'i', 00H, 't'
	DB	00H, 'e', 00H, 'r', 00H, 'a', 00H, 't', 00H, 'o', 00H, 'r', 00H
	DB	'"', 00H, 00H, 00H				; `string'
CONST	ENDS
;	COMDAT ??_C@_0CO@PGFNEDAH@can?8t?5dereference?5invalidated?5v@
CONST	SEGMENT
??_C@_0CO@PGFNEDAH@can?8t?5dereference?5invalidated?5v@ DB 'can''t derefe'
	DB	'rence invalidated vector iterator', 00H	; `string'
CONST	ENDS
;	COMDAT ??_C@_1GM@FNBFNBEL@?$AA?$CC?$AAc?$AAa?$AAn?$AA?8?$AAt?$AA?5?$AAd?$AAe?$AAr?$AAe?$AAf?$AAe?$AAr?$AAe@
CONST	SEGMENT
??_C@_1GM@FNBFNBEL@?$AA?$CC?$AAc?$AAa?$AAn?$AA?8?$AAt?$AA?5?$AAd?$AAe?$AAr?$AAe?$AAf?$AAe?$AAr?$AAe@ DB '"'
	DB	00H, 'c', 00H, 'a', 00H, 'n', 00H, '''', 00H, 't', 00H, ' ', 00H
	DB	'd', 00H, 'e', 00H, 'r', 00H, 'e', 00H, 'f', 00H, 'e', 00H, 'r'
	DB	00H, 'e', 00H, 'n', 00H, 'c', 00H, 'e', 00H, ' ', 00H, 'v', 00H
	DB	'a', 00H, 'l', 00H, 'u', 00H, 'e', 00H, '-', 00H, 'i', 00H, 'n'
	DB	00H, 'i', 00H, 't', 00H, 'i', 00H, 'a', 00H, 'l', 00H, 'i', 00H
	DB	'z', 00H, 'e', 00H, 'd', 00H, ' ', 00H, 'v', 00H, 'e', 00H, 'c'
	DB	00H, 't', 00H, 'o', 00H, 'r', 00H, ' ', 00H, 'i', 00H, 't', 00H
	DB	'e', 00H, 'r', 00H, 'a', 00H, 't', 00H, 'o', 00H, 'r', 00H, '"'
	DB	00H, 00H, 00H				; `string'
CONST	ENDS
;	COMDAT ??_C@_0DE@CHADHGFF@can?8t?5dereference?5value?9initial@
CONST	SEGMENT
??_C@_0DE@CHADHGFF@can?8t?5dereference?5value?9initial@ DB 'can''t derefe'
	DB	'rence value-initialized vector iterator', 00H ; `string'
CONST	ENDS
;	COMDAT ??_C@_1FG@LDPPKMGP@?$AA?$CC?$AAc?$AAa?$AAn?$AA?8?$AAt?$AA?5?$AAi?$AAn?$AAc?$AAr?$AAe?$AAm?$AAe?$AAn@
CONST	SEGMENT
??_C@_1FG@LDPPKMGP@?$AA?$CC?$AAc?$AAa?$AAn?$AA?8?$AAt?$AA?5?$AAi?$AAn?$AAc?$AAr?$AAe?$AAm?$AAe?$AAn@ DB '"'
	DB	00H, 'c', 00H, 'a', 00H, 'n', 00H, '''', 00H, 't', 00H, ' ', 00H
	DB	'i', 00H, 'n', 00H, 'c', 00H, 'r', 00H, 'e', 00H, 'm', 00H, 'e'
	DB	00H, 'n', 00H, 't', 00H, ' ', 00H, 'v', 00H, 'e', 00H, 'c', 00H
	DB	't', 00H, 'o', 00H, 'r', 00H, ' ', 00H, 'i', 00H, 't', 00H, 'e'
	DB	00H, 'r', 00H, 'a', 00H, 't', 00H, 'o', 00H, 'r', 00H, ' ', 00H
	DB	'p', 00H, 'a', 00H, 's', 00H, 't', 00H, ' ', 00H, 'e', 00H, 'n'
	DB	00H, 'd', 00H, '"', 00H, 00H, 00H		; `string'
CONST	ENDS
;	COMDAT ??_C@_0CJ@OAAAAGPM@can?8t?5increment?5vector?5iterator@
CONST	SEGMENT
??_C@_0CJ@OAAAAGPM@can?8t?5increment?5vector?5iterator@ DB 'can''t increm'
	DB	'ent vector iterator past end', 00H		; `string'
CONST	ENDS
;	COMDAT ??_C@_1FM@ICPJNHLL@?$AA?$CC?$AAc?$AAa?$AAn?$AA?8?$AAt?$AA?5?$AAi?$AAn?$AAc?$AAr?$AAe?$AAm?$AAe?$AAn@
CONST	SEGMENT
??_C@_1FM@ICPJNHLL@?$AA?$CC?$AAc?$AAa?$AAn?$AA?8?$AAt?$AA?5?$AAi?$AAn?$AAc?$AAr?$AAe?$AAm?$AAe?$AAn@ DB '"'
	DB	00H, 'c', 00H, 'a', 00H, 'n', 00H, '''', 00H, 't', 00H, ' ', 00H
	DB	'i', 00H, 'n', 00H, 'c', 00H, 'r', 00H, 'e', 00H, 'm', 00H, 'e'
	DB	00H, 'n', 00H, 't', 00H, ' ', 00H, 'i', 00H, 'n', 00H, 'v', 00H
	DB	'a', 00H, 'l', 00H, 'i', 00H, 'd', 00H, 'a', 00H, 't', 00H, 'e'
	DB	00H, 'd', 00H, ' ', 00H, 'v', 00H, 'e', 00H, 'c', 00H, 't', 00H
	DB	'o', 00H, 'r', 00H, ' ', 00H, 'i', 00H, 't', 00H, 'e', 00H, 'r'
	DB	00H, 'a', 00H, 't', 00H, 'o', 00H, 'r', 00H, '"', 00H, 00H, 00H ; `string'
CONST	ENDS
;	COMDAT ??_C@_0CM@MNNBKIBC@can?8t?5increment?5invalidated?5vec@
CONST	SEGMENT
??_C@_0CM@MNNBKIBC@can?8t?5increment?5invalidated?5vec@ DB 'can''t increm'
	DB	'ent invalidated vector iterator', 00H	; `string'
CONST	ENDS
;	COMDAT ??_C@_1GI@EDCILPL@?$AA?$CC?$AAc?$AAa?$AAn?$AA?8?$AAt?$AA?5?$AAi?$AAn?$AAc?$AAr?$AAe?$AAm?$AAe?$AAn@
CONST	SEGMENT
??_C@_1GI@EDCILPL@?$AA?$CC?$AAc?$AAa?$AAn?$AA?8?$AAt?$AA?5?$AAi?$AAn?$AAc?$AAr?$AAe?$AAm?$AAe?$AAn@ DB '"'
	DB	00H, 'c', 00H, 'a', 00H, 'n', 00H, '''', 00H, 't', 00H, ' ', 00H
	DB	'i', 00H, 'n', 00H, 'c', 00H, 'r', 00H, 'e', 00H, 'm', 00H, 'e'
	DB	00H, 'n', 00H, 't', 00H, ' ', 00H, 'v', 00H, 'a', 00H, 'l', 00H
	DB	'u', 00H, 'e', 00H, '-', 00H, 'i', 00H, 'n', 00H, 'i', 00H, 't'
	DB	00H, 'i', 00H, 'a', 00H, 'l', 00H, 'i', 00H, 'z', 00H, 'e', 00H
	DB	'd', 00H, ' ', 00H, 'v', 00H, 'e', 00H, 'c', 00H, 't', 00H, 'o'
	DB	00H, 'r', 00H, ' ', 00H, 'i', 00H, 't', 00H, 'e', 00H, 'r', 00H
	DB	'a', 00H, 't', 00H, 'o', 00H, 'r', 00H, '"', 00H, 00H, 00H ; `string'
CONST	ENDS
;	COMDAT ??_C@_1MC@ODEKBODI@?$AAC?$AA?3?$AA?2?$AAP?$AAr?$AAo?$AAg?$AAr?$AAa?$AAm?$AA?5?$AAF?$AAi?$AAl?$AAe@
CONST	SEGMENT
??_C@_1MC@ODEKBODI@?$AAC?$AA?3?$AA?2?$AAP?$AAr?$AAo?$AAg?$AAr?$AAa?$AAm?$AA?5?$AAF?$AAi?$AAl?$AAe@ DB 'C'
	DB	00H, ':', 00H, '\', 00H, 'P', 00H, 'r', 00H, 'o', 00H, 'g', 00H
	DB	'r', 00H, 'a', 00H, 'm', 00H, ' ', 00H, 'F', 00H, 'i', 00H, 'l'
	DB	00H, 'e', 00H, 's', 00H, '\', 00H, 'M', 00H, 'i', 00H, 'c', 00H
	DB	'r', 00H, 'o', 00H, 's', 00H, 'o', 00H, 'f', 00H, 't', 00H, ' '
	DB	00H, 'V', 00H, 'i', 00H, 's', 00H, 'u', 00H, 'a', 00H, 'l', 00H
	DB	' ', 00H, 'S', 00H, 't', 00H, 'u', 00H, 'd', 00H, 'i', 00H, 'o'
	DB	00H, '\', 00H, '2', 00H, '0', 00H, '2', 00H, '2', 00H, '\', 00H
	DB	'C', 00H, 'o', 00H, 'm', 00H, 'm', 00H, 'u', 00H, 'n', 00H, 'i'
	DB	00H, 't', 00H, 'y', 00H, '\', 00H, 'V', 00H, 'C', 00H, '\', 00H
	DB	'T', 00H, 'o', 00H, 'o', 00H, 'l', 00H, 's', 00H, '\', 00H, 'M'
	DB	00H, 'S', 00H, 'V', 00H, 'C', 00H, '\', 00H, '1', 00H, '4', 00H
	DB	'.', 00H, '4', 00H, '2', 00H, '.', 00H, '3', 00H, '4', 00H, '4'
	DB	00H, '3', 00H, '3', 00H, '\', 00H, 'i', 00H, 'n', 00H, 'c', 00H
	DB	'l', 00H, 'u', 00H, 'd', 00H, 'e', 00H, '\', 00H, 'v', 00H, 'e'
	DB	00H, 'c', 00H, 't', 00H, 'o', 00H, 'r', 00H, 00H, 00H ; `string'
CONST	ENDS
;	COMDAT ??_C@_0GB@CIHAIELA@C?3?2Program?5Files?2Microsoft?5Visu@
CONST	SEGMENT
??_C@_0GB@CIHAIELA@C?3?2Program?5Files?2Microsoft?5Visu@ DB 'C:\Program F'
	DB	'iles\Microsoft Visual Studio\2022\Community\VC\Tools\MSVC\14.'
	DB	'42.34433\include\vector', 00H		; `string'
CONST	ENDS
;	COMDAT ??_C@_0DC@KEKNBAEB@can?8t?5increment?5value?9initializ@
CONST	SEGMENT
??_C@_0DC@KEKNBAEB@can?8t?5increment?5value?9initializ@ DB 'can''t increm'
	DB	'ent value-initialized vector iterator', 00H	; `string'
CONST	ENDS
;	COMDAT ??_C@_1FE@EKNHDPMB@?$AA0?$AA?5?$AA?$CG?$AA?$CG?$AA?5?$AA?$CC?$AA?$DM?$AAF?$AAz?$AAO?$AAR?$AA?3?$AA?3?$AAO?$AAR@
CONST	SEGMENT
??_C@_1FE@EKNHDPMB@?$AA0?$AA?5?$AA?$CG?$AA?$CG?$AA?5?$AA?$CC?$AA?$DM?$AAF?$AAz?$AAO?$AAR?$AA?3?$AA?3?$AAO?$AAR@ DB '0'
	DB	00H, ' ', 00H, '&', 00H, '&', 00H, ' ', 00H, '"', 00H, '<', 00H
	DB	'F', 00H, 'z', 00H, 'O', 00H, 'R', 00H, ':', 00H, ':', 00H, 'O'
	DB	00H, 'R', 00H, 'w', 00H, 'i', 00H, 't', 00H, 'h', 00H, 'D', 00H
	DB	'O', 00H, 'M', 00H, '>', 00H, ':', 00H, ' ', 00H, 'i', 00H, 'n'
	DB	00H, 'v', 00H, 'a', 00H, 'l', 00H, 'i', 00H, 'd', 00H, ' ', 00H
	DB	'c', 00H, 'o', 00H, 'n', 00H, 't', 00H, 'e', 00H, 'x', 00H, 't'
	DB	00H, '"', 00H, 00H, 00H			; `string'
CONST	ENDS
;	COMDAT ??_C@_1FC@EJGEACIH@?$AA0?$AA?5?$AA?$CG?$AA?$CG?$AA?5?$AA?$CC?$AA?$DM?$AAF?$AAz?$AAO?$AAR?$AA?3?$AA?3?$AAC?$AAl@
CONST	SEGMENT
??_C@_1FC@EJGEACIH@?$AA0?$AA?5?$AA?$CG?$AA?$CG?$AA?5?$AA?$CC?$AA?$DM?$AAF?$AAz?$AAO?$AAR?$AA?3?$AA?3?$AAC?$AAl@ DB '0'
	DB	00H, ' ', 00H, '&', 00H, '&', 00H, ' ', 00H, '"', 00H, '<', 00H
	DB	'F', 00H, 'z', 00H, 'O', 00H, 'R', 00H, ':', 00H, ':', 00H, 'C'
	DB	00H, 'l', 00H, 'e', 00H, 'a', 00H, 'r', 00H, 'D', 00H, 'O', 00H
	DB	'M', 00H, '>', 00H, ':', 00H, ' ', 00H, 'i', 00H, 'n', 00H, 'v'
	DB	00H, 'a', 00H, 'l', 00H, 'i', 00H, 'd', 00H, ' ', 00H, 'c', 00H
	DB	'o', 00H, 'n', 00H, 't', 00H, 'e', 00H, 'x', 00H, 't', 00H, '"'
	DB	00H, 00H, 00H				; `string'
CONST	ENDS
;	COMDAT ??_C@_1JI@ONAHGKND@?$AAC?$AA?3?$AA?2?$AAU?$AAs?$AAe?$AAr?$AAs?$AA?2?$AAr?$AAp?$AAg?$AA2?$AA6?$AA?2@
CONST	SEGMENT
??_C@_1JI@ONAHGKND@?$AAC?$AA?3?$AA?2?$AAU?$AAs?$AAe?$AAr?$AAs?$AA?2?$AAr?$AAp?$AAg?$AA2?$AA6?$AA?2@ DB 'C'
	DB	00H, ':', 00H, '\', 00H, 'U', 00H, 's', 00H, 'e', 00H, 'r', 00H
	DB	's', 00H, '\', 00H, 'r', 00H, 'p', 00H, 'g', 00H, '2', 00H, '6'
	DB	00H, '\', 00H, 'O', 00H, 'n', 00H, 'e', 00H, 'D', 00H, 'r', 00H
	DB	'i', 00H, 'v', 00H, 'e', 00H, '\', 00H, 'D', 00H, 'e', 00H, 's'
	DB	00H, 'k', 00H, 't', 00H, 'o', 00H, 'p', 00H, '\', 00H, 'S', 00H
	DB	'o', 00H, 'u', 00H, 'r', 00H, 'c', 00H, 'e', 00H, '\', 00H, 'V'
	DB	00H, 'S', 00H, '2', 00H, '0', 00H, '1', 00H, '0', 00H, '\', 00H
	DB	'C', 00H, 'o', 00H, 'm', 00H, 'm', 00H, 'o', 00H, 'n', 00H, '\'
	DB	00H, 'f', 00H, 'u', 00H, 'z', 00H, 'z', 00H, 'y', 00H, '\', 00H
	DB	'F', 00H, 'u', 00H, 'z', 00H, 'z', 00H, 'y', 00H, 'O', 00H, 'p'
	DB	00H, 'e', 00H, 'r', 00H, 'a', 00H, 't', 00H, 'o', 00H, 'r', 00H
	DB	's', 00H, '.', 00H, 'h', 00H, 00H, 00H	; `string'
CONST	ENDS
;	COMDAT ??_7FzOR@@6B@
CONST	SEGMENT
??_7FzOR@@6B@ DD FLAT:??_R4FzOR@@6B@			; FzOR::`vftable'
	DD	FLAT:??_EFzOR@@UAEPAXI@Z
	DD	FLAT:?Clone@FzOR@@UBEPAVFuzzyTerm@@XZ
	DD	FLAT:?GetDOM@FzOR@@UBENXZ
	DD	FLAT:?ClearDOM@FzOR@@UAEXXZ
	DD	FLAT:?ORwithDOM@FzOR@@UAEXN@Z
CONST	ENDS
;	COMDAT ??_7FzAND@@6B@
CONST	SEGMENT
??_7FzAND@@6B@ DD FLAT:??_R4FzAND@@6B@			; FzAND::`vftable'
	DD	FLAT:??_EFzAND@@UAEPAXI@Z
	DD	FLAT:?Clone@FzAND@@UBEPAVFuzzyTerm@@XZ
	DD	FLAT:?GetDOM@FzAND@@UBENXZ
	DD	FLAT:?ClearDOM@FzAND@@UAEXXZ
	DD	FLAT:?ORwithDOM@FzAND@@UAEXN@Z
CONST	ENDS
;	COMDAT ??_7FuzzyTerm@@6B@
CONST	SEGMENT
??_7FuzzyTerm@@6B@ DD FLAT:??_R4FuzzyTerm@@6B@		; FuzzyTerm::`vftable'
	DD	FLAT:??_EFuzzyTerm@@UAEPAXI@Z
	DD	FLAT:__purecall
	DD	FLAT:__purecall
	DD	FLAT:__purecall
	DD	FLAT:__purecall
CONST	ENDS
;	COMDAT ??_C@_1DG@PLBPCAEM@?$AA?$CC?$AAI?$AAT?$AAE?$AAR?$AAA?$AAT?$AAO?$AAR?$AA?5?$AAL?$AAI?$AAS?$AAT?$AA?5@
CONST	SEGMENT
??_C@_1DG@PLBPCAEM@?$AA?$CC?$AAI?$AAT?$AAE?$AAR?$AAA?$AAT?$AAO?$AAR?$AA?5?$AAL?$AAI?$AAS?$AAT?$AA?5@ DB '"'
	DB	00H, 'I', 00H, 'T', 00H, 'E', 00H, 'R', 00H, 'A', 00H, 'T', 00H
	DB	'O', 00H, 'R', 00H, ' ', 00H, 'L', 00H, 'I', 00H, 'S', 00H, 'T'
	DB	00H, ' ', 00H, 'C', 00H, 'O', 00H, 'R', 00H, 'R', 00H, 'U', 00H
	DB	'P', 00H, 'T', 00H, 'E', 00H, 'D', 00H, '!', 00H, '"', 00H, 00H
	DB	00H						; `string'
CONST	ENDS
;	COMDAT ??_C@_0BJ@LFDBABJJ@ITERATOR?5LIST?5CORRUPTED?$CB@
CONST	SEGMENT
??_C@_0BJ@LFDBABJJ@ITERATOR?5LIST?5CORRUPTED?$CB@ DB 'ITERATOR LIST CORRU'
	DB	'PTED!', 00H					; `string'
CONST	ENDS
;	COMDAT ??_C@_1CG@JNLFBNGN@?$AA?$CC?$AAi?$AAn?$AAv?$AAa?$AAl?$AAi?$AAd?$AA?5?$AAa?$AAr?$AAg?$AAu?$AAm?$AAe@
CONST	SEGMENT
??_C@_1CG@JNLFBNGN@?$AA?$CC?$AAi?$AAn?$AAv?$AAa?$AAl?$AAi?$AAd?$AA?5?$AAa?$AAr?$AAg?$AAu?$AAm?$AAe@ DB '"'
	DB	00H, 'i', 00H, 'n', 00H, 'v', 00H, 'a', 00H, 'l', 00H, 'i', 00H
	DB	'd', 00H, ' ', 00H, 'a', 00H, 'r', 00H, 'g', 00H, 'u', 00H, 'm'
	DB	00H, 'e', 00H, 'n', 00H, 't', 00H, '"', 00H, 00H, 00H ; `string'
CONST	ENDS
;	COMDAT ??_C@_11LOCGONAA@@
CONST	SEGMENT
??_C@_11LOCGONAA@@ DB 00H, 00H				; `string'
CONST	ENDS
;	COMDAT ??_C@_1ME@NMPKGKJL@?$AAC?$AA?3?$AA?2?$AAP?$AAr?$AAo?$AAg?$AAr?$AAa?$AAm?$AA?5?$AAF?$AAi?$AAl?$AAe@
CONST	SEGMENT
??_C@_1ME@NMPKGKJL@?$AAC?$AA?3?$AA?2?$AAP?$AAr?$AAo?$AAg?$AAr?$AAa?$AAm?$AA?5?$AAF?$AAi?$AAl?$AAe@ DB 'C'
	DB	00H, ':', 00H, '\', 00H, 'P', 00H, 'r', 00H, 'o', 00H, 'g', 00H
	DB	'r', 00H, 'a', 00H, 'm', 00H, ' ', 00H, 'F', 00H, 'i', 00H, 'l'
	DB	00H, 'e', 00H, 's', 00H, '\', 00H, 'M', 00H, 'i', 00H, 'c', 00H
	DB	'r', 00H, 'o', 00H, 's', 00H, 'o', 00H, 'f', 00H, 't', 00H, ' '
	DB	00H, 'V', 00H, 'i', 00H, 's', 00H, 'u', 00H, 'a', 00H, 'l', 00H
	DB	' ', 00H, 'S', 00H, 't', 00H, 'u', 00H, 'd', 00H, 'i', 00H, 'o'
	DB	00H, '\', 00H, '2', 00H, '0', 00H, '2', 00H, '2', 00H, '\', 00H
	DB	'C', 00H, 'o', 00H, 'm', 00H, 'm', 00H, 'u', 00H, 'n', 00H, 'i'
	DB	00H, 't', 00H, 'y', 00H, '\', 00H, 'V', 00H, 'C', 00H, '\', 00H
	DB	'T', 00H, 'o', 00H, 'o', 00H, 'l', 00H, 's', 00H, '\', 00H, 'M'
	DB	00H, 'S', 00H, 'V', 00H, 'C', 00H, '\', 00H, '1', 00H, '4', 00H
	DB	'.', 00H, '4', 00H, '2', 00H, '.', 00H, '3', 00H, '4', 00H, '4'
	DB	00H, '3', 00H, '3', 00H, '\', 00H, 'i', 00H, 'n', 00H, 'c', 00H
	DB	'l', 00H, 'u', 00H, 'd', 00H, 'e', 00H, '\', 00H, 'x', 00H, 'm'
	DB	00H, 'e', 00H, 'm', 00H, 'o', 00H, 'r', 00H, 'y', 00H, 00H, 00H ; `string'
CONST	ENDS
;	COMDAT ??_C@_0GC@KIHIELAM@C?3?2Program?5Files?2Microsoft?5Visu@
CONST	SEGMENT
??_C@_0GC@KIHIELAM@C?3?2Program?5Files?2Microsoft?5Visu@ DB 'C:\Program F'
	DB	'iles\Microsoft Visual Studio\2022\Community\VC\Tools\MSVC\14.'
	DB	'42.34433\include\xmemory', 00H		; `string'
CONST	ENDS
;	COMDAT ??_C@_02DKCKIIND@?$CFs@
CONST	SEGMENT
??_C@_02DKCKIIND@?$CFs@ DB '%s', 00H			; `string'
CONST	ENDS
;	COMDAT ??_C@_0BB@FCMFBGOM@invalid?5argument@
CONST	SEGMENT
??_C@_0BB@FCMFBGOM@invalid?5argument@ DB 'invalid argument', 00H ; `string'
CONST	ENDS
;	COMDAT __CT??_R0?AVbad_alloc@std@@@8??0bad_alloc@std@@QAE@ABV01@@Z12
xdata$x	SEGMENT
__CT??_R0?AVbad_alloc@std@@@8??0bad_alloc@std@@QAE@ABV01@@Z12 DD 010H
	DD	FLAT:??_R0?AVbad_alloc@std@@@8
	DD	00H
	DD	0ffffffffH
	ORG $+4
	DD	0cH
	DD	FLAT:??0bad_alloc@std@@QAE@ABV01@@Z
xdata$x	ENDS
;	COMDAT ??_R0?AVbad_alloc@std@@@8
data$r	SEGMENT
??_R0?AVbad_alloc@std@@@8 DD FLAT:??_7type_info@@6B@	; std::bad_alloc `RTTI Type Descriptor'
	DD	00H
	DB	'.?AVbad_alloc@std@@', 00H
data$r	ENDS
;	COMDAT __CT??_R0?AVbad_array_new_length@std@@@8??0bad_array_new_length@std@@QAE@ABV01@@Z12
xdata$x	SEGMENT
__CT??_R0?AVbad_array_new_length@std@@@8??0bad_array_new_length@std@@QAE@ABV01@@Z12 DD 00H
	DD	FLAT:??_R0?AVbad_array_new_length@std@@@8
	DD	00H
	DD	0ffffffffH
	ORG $+4
	DD	0cH
	DD	FLAT:??0bad_array_new_length@std@@QAE@ABV01@@Z
xdata$x	ENDS
;	COMDAT ??_R0?AVbad_array_new_length@std@@@8
data$r	SEGMENT
??_R0?AVbad_array_new_length@std@@@8 DD FLAT:??_7type_info@@6B@ ; std::bad_array_new_length `RTTI Type Descriptor'
	DD	00H
	DB	'.?AVbad_array_new_length@std@@', 00H
data$r	ENDS
;	COMDAT __CTA3?AVbad_array_new_length@std@@
xdata$x	SEGMENT
__CTA3?AVbad_array_new_length@std@@ DD 03H
	DD	FLAT:__CT??_R0?AVbad_array_new_length@std@@@8??0bad_array_new_length@std@@QAE@ABV01@@Z12
	DD	FLAT:__CT??_R0?AVbad_alloc@std@@@8??0bad_alloc@std@@QAE@ABV01@@Z12
	DD	FLAT:__CT??_R0?AVexception@std@@@8??0exception@std@@QAE@ABV01@@Z12
xdata$x	ENDS
;	COMDAT __TI3?AVbad_array_new_length@std@@
xdata$x	SEGMENT
__TI3?AVbad_array_new_length@std@@ DD 00H
	DD	FLAT:??1bad_array_new_length@std@@UAE@XZ
	DD	00H
	DD	FLAT:__CTA3?AVbad_array_new_length@std@@
xdata$x	ENDS
;	COMDAT __CT??_R0?AVexception@std@@@8??0exception@std@@QAE@ABV01@@Z12
xdata$x	SEGMENT
__CT??_R0?AVexception@std@@@8??0exception@std@@QAE@ABV01@@Z12 DD 00H
	DD	FLAT:??_R0?AVexception@std@@@8
	DD	00H
	DD	0ffffffffH
	ORG $+4
	DD	0cH
	DD	FLAT:??0exception@std@@QAE@ABV01@@Z
xdata$x	ENDS
;	COMDAT ??_R0?AVexception@std@@@8
data$r	SEGMENT
??_R0?AVexception@std@@@8 DD FLAT:??_7type_info@@6B@	; std::exception `RTTI Type Descriptor'
	DD	00H
	DB	'.?AVexception@std@@', 00H
data$r	ENDS
;	COMDAT ??_C@_0BF@KINCDENJ@bad?5array?5new?5length@
CONST	SEGMENT
??_C@_0BF@KINCDENJ@bad?5array?5new?5length@ DB 'bad array new length', 00H ; `string'
CONST	ENDS
;	COMDAT ??_7bad_array_new_length@std@@6B@
CONST	SEGMENT
??_7bad_array_new_length@std@@6B@ DD FLAT:??_R4bad_array_new_length@std@@6B@ ; std::bad_array_new_length::`vftable'
	DD	FLAT:??_Ebad_array_new_length@std@@UAEPAXI@Z
	DD	FLAT:?what@exception@std@@UBEPBDXZ
CONST	ENDS
;	COMDAT ??_7bad_alloc@std@@6B@
CONST	SEGMENT
??_7bad_alloc@std@@6B@ DD FLAT:??_R4bad_alloc@std@@6B@	; std::bad_alloc::`vftable'
	DD	FLAT:??_Ebad_alloc@std@@UAEPAXI@Z
	DD	FLAT:?what@exception@std@@UBEPBDXZ
CONST	ENDS
;	COMDAT ??_C@_0BC@EOODALEL@Unknown?5exception@
CONST	SEGMENT
??_C@_0BC@EOODALEL@Unknown?5exception@ DB 'Unknown exception', 00H ; `string'
CONST	ENDS
;	COMDAT ??_7exception@std@@6B@
CONST	SEGMENT
??_7exception@std@@6B@ DD FLAT:??_R4exception@std@@6B@	; std::exception::`vftable'
	DD	FLAT:??_Eexception@std@@UAEPAXI@Z
	DD	FLAT:?what@exception@std@@UBEPBDXZ
CONST	ENDS
;	COMDAT voltbl
voltbl	SEGMENT
_volmd	DB	016H
voltbl	ENDS
;	COMDAT xdata$x
xdata$x	SEGMENT
__unwindtable$??$_Uninitialized_move@PAPAVFuzzyTerm@@V?$allocator@PAVFuzzyTerm@@@std@@@std@@YAPAPAVFuzzyTerm@@QAPAV1@0PAPAV1@AAV?$allocator@PAVFuzzyTerm@@@0@@Z DD 0ffffffffH
	DD	FLAT:__unwindfunclet$??$_Uninitialized_move@PAPAVFuzzyTerm@@V?$allocator@PAVFuzzyTerm@@@std@@@std@@YAPAPAVFuzzyTerm@@QAPAV1@0PAPAV1@AAV?$allocator@PAVFuzzyTerm@@@0@@Z$0
__ehfuncinfo$??$_Uninitialized_move@PAPAVFuzzyTerm@@V?$allocator@PAVFuzzyTerm@@@std@@@std@@YAPAPAVFuzzyTerm@@QAPAV1@0PAPAV1@AAV?$allocator@PAVFuzzyTerm@@@0@@Z DD 019930522H
	DD	01H
	DD	FLAT:__unwindtable$??$_Uninitialized_move@PAPAVFuzzyTerm@@V?$allocator@PAVFuzzyTerm@@@std@@@std@@YAPAPAVFuzzyTerm@@QAPAV1@0PAPAV1@AAV?$allocator@PAVFuzzyTerm@@@0@@Z
	DD	2 DUP(00H)
	DD	2 DUP(00H)
	DD	00H
	DD	01H
xdata$x	ENDS
;	COMDAT voltbl
voltbl	SEGMENT
_volmd	DB	09H
voltbl	ENDS
;	COMDAT xdata$x
xdata$x	SEGMENT
__ehfuncinfo$??$_Deallocate_plain@V?$allocator@U_Container_proxy@std@@@std@@@std@@YAXAAV?$allocator@U_Container_proxy@std@@@0@QAU_Container_proxy@0@@Z DD 019930522H
	DD	00H
	DD	00H
	DD	2 DUP(00H)
	DD	2 DUP(00H)
	DD	00H
	DD	05H
xdata$x	ENDS
;	COMDAT voltbl
voltbl	SEGMENT
_volmd	DB	09H
voltbl	ENDS
;	COMDAT xdata$x
xdata$x	SEGMENT
__catchsym$??$_Emplace_reallocate@PAVFuzzyTerm@@@?$vector@PAVFuzzyTerm@@V?$allocator@PAVFuzzyTerm@@@std@@@std@@AAEPAPAVFuzzyTerm@@QAPAV2@$$QAPAV2@@Z$2 DD 040H
	DD	00H
	DD	00H
	DD	FLAT:__catch$??$_Emplace_reallocate@PAVFuzzyTerm@@@?$vector@PAVFuzzyTerm@@V?$allocator@PAVFuzzyTerm@@@std@@@std@@AAEPAPAVFuzzyTerm@@QAPAV2@$$QAPAV2@@Z$0
__unwindtable$??$_Emplace_reallocate@PAVFuzzyTerm@@@?$vector@PAVFuzzyTerm@@V?$allocator@PAVFuzzyTerm@@@std@@@std@@AAEPAPAVFuzzyTerm@@QAPAV2@$$QAPAV2@@Z DD 0ffffffffH
	DD	00H
	DD	0ffffffffH
	DD	00H
__tryblocktable$??$_Emplace_reallocate@PAVFuzzyTerm@@@?$vector@PAVFuzzyTerm@@V?$allocator@PAVFuzzyTerm@@@std@@@std@@AAEPAPAVFuzzyTerm@@QAPAV2@$$QAPAV2@@Z DD 00H
	DD	00H
	DD	01H
	DD	01H
	DD	FLAT:__catchsym$??$_Emplace_reallocate@PAVFuzzyTerm@@@?$vector@PAVFuzzyTerm@@V?$allocator@PAVFuzzyTerm@@@std@@@std@@AAEPAPAVFuzzyTerm@@QAPAV2@$$QAPAV2@@Z$2
__ehfuncinfo$??$_Emplace_reallocate@PAVFuzzyTerm@@@?$vector@PAVFuzzyTerm@@V?$allocator@PAVFuzzyTerm@@@std@@@std@@AAEPAPAVFuzzyTerm@@QAPAV2@$$QAPAV2@@Z DD 019930522H
	DD	02H
	DD	FLAT:__unwindtable$??$_Emplace_reallocate@PAVFuzzyTerm@@@?$vector@PAVFuzzyTerm@@V?$allocator@PAVFuzzyTerm@@@std@@@std@@AAEPAPAVFuzzyTerm@@QAPAV2@$$QAPAV2@@Z
	DD	01H
	DD	FLAT:__tryblocktable$??$_Emplace_reallocate@PAVFuzzyTerm@@@?$vector@PAVFuzzyTerm@@V?$allocator@PAVFuzzyTerm@@@std@@@std@@AAEPAPAVFuzzyTerm@@QAPAV2@$$QAPAV2@@Z
	DD	2 DUP(00H)
	DD	00H
	DD	01H
xdata$x	ENDS
;	COMDAT voltbl
voltbl	SEGMENT
_volmd	DB	09H
voltbl	ENDS
;	COMDAT xdata$x
xdata$x	SEGMENT
__ehfuncinfo$??$_Deallocate@$07@std@@YAXPAXI@Z DD 019930522H
	DD	00H
	DD	00H
	DD	2 DUP(00H)
	DD	2 DUP(00H)
	DD	00H
	DD	05H
xdata$x	ENDS
;	COMDAT voltbl
voltbl	SEGMENT
_volmd	DB	01dH
voltbl	ENDS
;	COMDAT xdata$x
xdata$x	SEGMENT
__unwindtable$?Clone@FzOR@@UBEPAVFuzzyTerm@@XZ DD 0ffffffffH
	DD	FLAT:__unwindfunclet$?Clone@FzOR@@UBEPAVFuzzyTerm@@XZ$0
__ehfuncinfo$?Clone@FzOR@@UBEPAVFuzzyTerm@@XZ DD 019930522H
	DD	01H
	DD	FLAT:__unwindtable$?Clone@FzOR@@UBEPAVFuzzyTerm@@XZ
	DD	2 DUP(00H)
	DD	2 DUP(00H)
	DD	00H
	DD	01H
xdata$x	ENDS
;	COMDAT voltbl
voltbl	SEGMENT
_volmd	DB	01dH
voltbl	ENDS
;	COMDAT xdata$x
xdata$x	SEGMENT
__unwindtable$?Clone@FzAND@@UBEPAVFuzzyTerm@@XZ DD 0ffffffffH
	DD	FLAT:__unwindfunclet$?Clone@FzAND@@UBEPAVFuzzyTerm@@XZ$0
__ehfuncinfo$?Clone@FzAND@@UBEPAVFuzzyTerm@@XZ DD 019930522H
	DD	01H
	DD	FLAT:__unwindtable$?Clone@FzAND@@UBEPAVFuzzyTerm@@XZ
	DD	2 DUP(00H)
	DD	2 DUP(00H)
	DD	00H
	DD	01H
xdata$x	ENDS
voltbl	SEGMENT
_volmd	DD	0ffffffffH
	DDSymXIndex: 	FLAT:__unwindfunclet$?GetDOM@FzOR@@UBENXZ$0
	DD	016H
_volmd	DD	0ffffffffH
	DDSymXIndex: 	FLAT:__unwindfunclet$??0FzOR@@QAE@AAVFuzzyTerm@@000@Z$0
	DD	021H
_volmd	DD	0ffffffffH
	DDSymXIndex: 	FLAT:__unwindfunclet$??0FzOR@@QAE@AAVFuzzyTerm@@00@Z$0
	DD	021H
_volmd	DD	0ffffffffH
	DDSymXIndex: 	FLAT:__unwindfunclet$??0FzOR@@QAE@AAVFuzzyTerm@@0@Z$0
	DD	021H
_volmd	DD	0ffffffffH
	DDSymXIndex: 	FLAT:__unwindfunclet$??0FzOR@@QAE@ABV0@@Z$0
	DD	029H
_volmd	DD	0ffffffffH
	DDSymXIndex: 	FLAT:__unwindfunclet$?ORwithDOM@FzAND@@UAEXN@Z$0
	DD	016H
_volmd	DD	0ffffffffH
	DDSymXIndex: 	FLAT:__unwindfunclet$?ClearDOM@FzAND@@UAEXXZ$0
	DD	016H
_volmd	DD	0ffffffffH
	DDSymXIndex: 	FLAT:__unwindfunclet$?GetDOM@FzAND@@UBENXZ$0
	DD	016H
_volmd	DD	0ffffffffH
	DDSymXIndex: 	FLAT:__unwindfunclet$??0FzAND@@QAE@AAVFuzzyTerm@@000@Z$0
	DD	021H
_volmd	DD	0ffffffffH
	DDSymXIndex: 	FLAT:__unwindfunclet$??0FzAND@@QAE@AAVFuzzyTerm@@00@Z$0
	DD	021H
_volmd	DD	0ffffffffH
	DDSymXIndex: 	FLAT:__unwindfunclet$??0FzAND@@QAE@AAVFuzzyTerm@@0@Z$0
	DD	021H
_volmd	DD	0ffffffffH
	DDSymXIndex: 	FLAT:__unwindfunclet$??0FzAND@@QAE@ABV0@@Z$0
	DD	029H
voltbl	ENDS
xdata$x	SEGMENT
__unwindtable$?GetDOM@FzOR@@UBENXZ DD 0ffffffffH
	DD	FLAT:__unwindfunclet$?GetDOM@FzOR@@UBENXZ$0
__unwindtable$?ORwithDOM@FzAND@@UAEXN@Z DD 0ffffffffH
	DD	FLAT:__unwindfunclet$?ORwithDOM@FzAND@@UAEXN@Z$0
__unwindtable$?ClearDOM@FzAND@@UAEXXZ DD 0ffffffffH
	DD	FLAT:__unwindfunclet$?ClearDOM@FzAND@@UAEXXZ$0
__unwindtable$?GetDOM@FzAND@@UBENXZ DD 0ffffffffH
	DD	FLAT:__unwindfunclet$?GetDOM@FzAND@@UBENXZ$0
__unwindtable$??0FzOR@@QAE@AAVFuzzyTerm@@000@Z DD 0ffffffffH
	DD	FLAT:__unwindfunclet$??0FzOR@@QAE@AAVFuzzyTerm@@000@Z$0
	DD	00H
	DD	FLAT:__unwindfunclet$??0FzOR@@QAE@AAVFuzzyTerm@@000@Z$1
__unwindtable$??0FzOR@@QAE@AAVFuzzyTerm@@00@Z DD 0ffffffffH
	DD	FLAT:__unwindfunclet$??0FzOR@@QAE@AAVFuzzyTerm@@00@Z$0
	DD	00H
	DD	FLAT:__unwindfunclet$??0FzOR@@QAE@AAVFuzzyTerm@@00@Z$1
__unwindtable$??0FzOR@@QAE@AAVFuzzyTerm@@0@Z DD 0ffffffffH
	DD	FLAT:__unwindfunclet$??0FzOR@@QAE@AAVFuzzyTerm@@0@Z$0
	DD	00H
	DD	FLAT:__unwindfunclet$??0FzOR@@QAE@AAVFuzzyTerm@@0@Z$1
__unwindtable$??0FzAND@@QAE@AAVFuzzyTerm@@000@Z DD 0ffffffffH
	DD	FLAT:__unwindfunclet$??0FzAND@@QAE@AAVFuzzyTerm@@000@Z$0
	DD	00H
	DD	FLAT:__unwindfunclet$??0FzAND@@QAE@AAVFuzzyTerm@@000@Z$1
__unwindtable$??0FzAND@@QAE@AAVFuzzyTerm@@00@Z DD 0ffffffffH
	DD	FLAT:__unwindfunclet$??0FzAND@@QAE@AAVFuzzyTerm@@00@Z$0
	DD	00H
	DD	FLAT:__unwindfunclet$??0FzAND@@QAE@AAVFuzzyTerm@@00@Z$1
__unwindtable$??0FzAND@@QAE@AAVFuzzyTerm@@0@Z DD 0ffffffffH
	DD	FLAT:__unwindfunclet$??0FzAND@@QAE@AAVFuzzyTerm@@0@Z$0
	DD	00H
	DD	FLAT:__unwindfunclet$??0FzAND@@QAE@AAVFuzzyTerm@@0@Z$1
__unwindtable$??0FzOR@@QAE@ABV0@@Z DD 0ffffffffH
	DD	FLAT:__unwindfunclet$??0FzOR@@QAE@ABV0@@Z$0
	DD	00H
	DD	FLAT:__unwindfunclet$??0FzOR@@QAE@ABV0@@Z$1
	DD	01H
	DD	FLAT:__unwindfunclet$??0FzOR@@QAE@ABV0@@Z$2
__unwindtable$??0FzAND@@QAE@ABV0@@Z DD 0ffffffffH
	DD	FLAT:__unwindfunclet$??0FzAND@@QAE@ABV0@@Z$0
	DD	00H
	DD	FLAT:__unwindfunclet$??0FzAND@@QAE@ABV0@@Z$1
	DD	01H
	DD	FLAT:__unwindfunclet$??0FzAND@@QAE@ABV0@@Z$2
__ehfuncinfo$?GetDOM@FzOR@@UBENXZ DD 019930522H
	DD	01H
	DD	FLAT:__unwindtable$?GetDOM@FzOR@@UBENXZ
	DD	2 DUP(00H)
	DD	2 DUP(00H)
	DD	00H
	DD	01H
__ehfuncinfo$??0FzOR@@QAE@AAVFuzzyTerm@@000@Z DD 019930522H
	DD	02H
	DD	FLAT:__unwindtable$??0FzOR@@QAE@AAVFuzzyTerm@@000@Z
	DD	2 DUP(00H)
	DD	2 DUP(00H)
	DD	00H
	DD	01H
__ehfuncinfo$??0FzOR@@QAE@AAVFuzzyTerm@@00@Z DD 019930522H
	DD	02H
	DD	FLAT:__unwindtable$??0FzOR@@QAE@AAVFuzzyTerm@@00@Z
	DD	2 DUP(00H)
	DD	2 DUP(00H)
	DD	00H
	DD	01H
__ehfuncinfo$??0FzOR@@QAE@AAVFuzzyTerm@@0@Z DD 019930522H
	DD	02H
	DD	FLAT:__unwindtable$??0FzOR@@QAE@AAVFuzzyTerm@@0@Z
	DD	2 DUP(00H)
	DD	2 DUP(00H)
	DD	00H
	DD	01H
__ehfuncinfo$??0FzOR@@QAE@ABV0@@Z DD 019930522H
	DD	03H
	DD	FLAT:__unwindtable$??0FzOR@@QAE@ABV0@@Z
	DD	2 DUP(00H)
	DD	2 DUP(00H)
	DD	00H
	DD	01H
__ehfuncinfo$?ORwithDOM@FzAND@@UAEXN@Z DD 019930522H
	DD	01H
	DD	FLAT:__unwindtable$?ORwithDOM@FzAND@@UAEXN@Z
	DD	2 DUP(00H)
	DD	2 DUP(00H)
	DD	00H
	DD	01H
__ehfuncinfo$?ClearDOM@FzAND@@UAEXXZ DD 019930522H
	DD	01H
	DD	FLAT:__unwindtable$?ClearDOM@FzAND@@UAEXXZ
	DD	2 DUP(00H)
	DD	2 DUP(00H)
	DD	00H
	DD	01H
__ehfuncinfo$?GetDOM@FzAND@@UBENXZ DD 019930522H
	DD	01H
	DD	FLAT:__unwindtable$?GetDOM@FzAND@@UBENXZ
	DD	2 DUP(00H)
	DD	2 DUP(00H)
	DD	00H
	DD	01H
__ehfuncinfo$??0FzAND@@QAE@AAVFuzzyTerm@@000@Z DD 019930522H
	DD	02H
	DD	FLAT:__unwindtable$??0FzAND@@QAE@AAVFuzzyTerm@@000@Z
	DD	2 DUP(00H)
	DD	2 DUP(00H)
	DD	00H
	DD	01H
__ehfuncinfo$??0FzAND@@QAE@AAVFuzzyTerm@@00@Z DD 019930522H
	DD	02H
	DD	FLAT:__unwindtable$??0FzAND@@QAE@AAVFuzzyTerm@@00@Z
	DD	2 DUP(00H)
	DD	2 DUP(00H)
	DD	00H
	DD	01H
__ehfuncinfo$??0FzAND@@QAE@AAVFuzzyTerm@@0@Z DD 019930522H
	DD	02H
	DD	FLAT:__unwindtable$??0FzAND@@QAE@AAVFuzzyTerm@@0@Z
	DD	2 DUP(00H)
	DD	2 DUP(00H)
	DD	00H
	DD	01H
__ehfuncinfo$??0FzAND@@QAE@ABV0@@Z DD 019930522H
	DD	03H
	DD	FLAT:__unwindtable$??0FzAND@@QAE@ABV0@@Z
	DD	2 DUP(00H)
	DD	2 DUP(00H)
	DD	00H
	DD	01H
xdata$x	ENDS
;	COMDAT voltbl
voltbl	SEGMENT
_volmd	DB	016H
voltbl	ENDS
;	COMDAT xdata$x
xdata$x	SEGMENT
__unwindtable$?_Orphan_range_locked@?$vector@PAVFuzzyTerm@@V?$allocator@PAVFuzzyTerm@@@std@@@std@@ABEXPAPAVFuzzyTerm@@0@Z DD 0ffffffffH
	DD	FLAT:__unwindfunclet$?_Orphan_range_locked@?$vector@PAVFuzzyTerm@@V?$allocator@PAVFuzzyTerm@@@std@@@std@@ABEXPAPAVFuzzyTerm@@0@Z$0
__ehfuncinfo$?_Orphan_range_locked@?$vector@PAVFuzzyTerm@@V?$allocator@PAVFuzzyTerm@@@std@@@std@@ABEXPAPAVFuzzyTerm@@0@Z DD 019930522H
	DD	01H
	DD	FLAT:__unwindtable$?_Orphan_range_locked@?$vector@PAVFuzzyTerm@@V?$allocator@PAVFuzzyTerm@@@std@@@std@@ABEXPAPAVFuzzyTerm@@0@Z
	DD	2 DUP(00H)
	DD	2 DUP(00H)
	DD	00H
	DD	01H
xdata$x	ENDS
;	COMDAT voltbl
voltbl	SEGMENT
_volmd	DB	09H
voltbl	ENDS
;	COMDAT xdata$x
xdata$x	SEGMENT
__ehfuncinfo$?_Tidy@?$vector@PAVFuzzyTerm@@V?$allocator@PAVFuzzyTerm@@@std@@@std@@AAEXXZ DD 019930522H
	DD	00H
	DD	00H
	DD	2 DUP(00H)
	DD	2 DUP(00H)
	DD	00H
	DD	05H
xdata$x	ENDS
;	COMDAT voltbl
voltbl	SEGMENT
_volmd	DB	09H
voltbl	ENDS
;	COMDAT xdata$x
xdata$x	SEGMENT
__ehfuncinfo$??0?$vector@PAVFuzzyTerm@@V?$allocator@PAVFuzzyTerm@@@std@@@std@@QAE@XZ DD 019930522H
	DD	00H
	DD	00H
	DD	2 DUP(00H)
	DD	2 DUP(00H)
	DD	00H
	DD	05H
xdata$x	ENDS
; Function compile flags: /Odtp /RTCsu
; File C:\Program Files\Microsoft Visual Studio\2022\Community\VC\Tools\MSVC\14.42.34433\include\xutility
;	COMDAT ??$_To_address@PAPAVFuzzyTerm@@@std@@YA?A_PABQAPAVFuzzyTerm@@@Z
_TEXT	SEGMENT
__Val$ = 8						; size = 4
??$_To_address@PAPAVFuzzyTerm@@@std@@YA?A_PABQAPAVFuzzyTerm@@@Z PROC ; std::_To_address<FuzzyTerm * *>, COMDAT

; 4529 : _NODISCARD constexpr auto _To_address(const _Iter& _Val) noexcept {

	push	ebp
	mov	ebp, esp

; 4530 :     _STL_INTERNAL_STATIC_ASSERT(is_pointer_v<_Iter>);
; 4531 :     return _Val;

	mov	eax, DWORD PTR __Val$[ebp]
	mov	eax, DWORD PTR [eax]

; 4532 : }

	pop	ebp
	ret	0
??$_To_address@PAPAVFuzzyTerm@@@std@@YA?A_PABQAPAVFuzzyTerm@@@Z ENDP ; std::_To_address<FuzzyTerm * *>
_TEXT	ENDS
; Function compile flags: /Odtp /RTCsu
; File C:\Program Files\Microsoft Visual Studio\2022\Community\VC\Tools\MSVC\14.42.34433\include\xmemory
;	COMDAT ??$_Get_size_of_n@$03@std@@YAII@Z
_TEXT	SEGMENT
__Max_possible$1 = -8					; size = 4
__Overflow_is_possible$ = -1				; size = 1
__Count$ = 8						; size = 4
??$_Get_size_of_n@$03@std@@YAII@Z PROC			; std::_Get_size_of_n<4>, COMDAT

; 79   : _NODISCARD constexpr size_t _Get_size_of_n(const size_t _Count) {

	push	ebp
	mov	ebp, esp
	sub	esp, 8
	mov	DWORD PTR [ebp-8], -858993460		; ccccccccH
	mov	DWORD PTR [ebp-4], -858993460		; ccccccccH

; 80   :     constexpr bool _Overflow_is_possible = _Ty_size > 1;

	mov	BYTE PTR __Overflow_is_possible$[ebp], 1

; 81   : 
; 82   :     if constexpr (_Overflow_is_possible) {
; 83   :         constexpr size_t _Max_possible = static_cast<size_t>(-1) / _Ty_size;

	mov	DWORD PTR __Max_possible$1[ebp], 1073741823 ; 3fffffffH

; 84   :         if (_Count > _Max_possible) {

	cmp	DWORD PTR __Count$[ebp], 1073741823	; 3fffffffH
	jbe	SHORT $LN2@Get_size_o

; 85   :             _Throw_bad_array_new_length(); // multiply overflow

	call	?_Throw_bad_array_new_length@std@@YAXXZ	; std::_Throw_bad_array_new_length
	npad	1
$LN2@Get_size_o:

; 86   :         }
; 87   :     }
; 88   : 
; 89   :     return _Count * _Ty_size;

	mov	eax, DWORD PTR __Count$[ebp]
	shl	eax, 2
$LN1@Get_size_o:

; 90   : }

	add	esp, 8
	cmp	ebp, esp
	call	__RTC_CheckEsp
	mov	esp, ebp
	pop	ebp
	ret	0
??$_Get_size_of_n@$03@std@@YAII@Z ENDP			; std::_Get_size_of_n<4>
_TEXT	ENDS
; Function compile flags: /Odtp /RTCsu
; File C:\Program Files\Microsoft Visual Studio\2022\Community\VC\Tools\MSVC\14.42.34433\include\xmemory
;	COMDAT ??$_Emplace_back@PAVFuzzyTerm@@@?$_Uninitialized_backout_al@V?$allocator@PAVFuzzyTerm@@@std@@@std@@QAEX$$QAPAVFuzzyTerm@@@Z
_TEXT	SEGMENT
_this$ = -4						; size = 4
_<_Vals_0>$ = 8						; size = 4
??$_Emplace_back@PAVFuzzyTerm@@@?$_Uninitialized_backout_al@V?$allocator@PAVFuzzyTerm@@@std@@@std@@QAEX$$QAPAVFuzzyTerm@@@Z PROC ; std::_Uninitialized_backout_al<std::allocator<FuzzyTerm *> >::_Emplace_back<FuzzyTerm *>, COMDAT
; _this$ = ecx

; 1778 :     _CONSTEXPR20 void _Emplace_back(_Types&&... _Vals) { // construct a new element at *_Last and increment

	push	ebp
	mov	ebp, esp
	push	ecx
	mov	DWORD PTR [ebp-4], -858993460		; ccccccccH
	mov	DWORD PTR _this$[ebp], ecx

; 1779 :         allocator_traits<_Alloc>::construct(_Al, _STD _Unfancy(_Last), _STD forward<_Types>(_Vals)...);

	mov	eax, DWORD PTR _<_Vals_0>$[ebp]
	push	eax
	call	??$forward@PAVFuzzyTerm@@@std@@YA$$QAPAVFuzzyTerm@@AAPAV1@@Z ; std::forward<FuzzyTerm *>
	add	esp, 4
	push	eax
	mov	ecx, DWORD PTR _this$[ebp]
	mov	edx, DWORD PTR [ecx+4]
	push	edx
	call	??$_Unfancy@PAVFuzzyTerm@@@std@@YAPAPAVFuzzyTerm@@PAPAV1@@Z ; std::_Unfancy<FuzzyTerm *>
	add	esp, 4
	push	eax
	mov	eax, DWORD PTR _this$[ebp]
	mov	ecx, DWORD PTR [eax+8]
	push	ecx
	call	??$construct@PAVFuzzyTerm@@PAV1@@?$_Default_allocator_traits@V?$allocator@PAVFuzzyTerm@@@std@@@std@@SAXAAV?$allocator@PAVFuzzyTerm@@@1@QAPAVFuzzyTerm@@$$QAPAV3@@Z ; std::_Default_allocator_traits<std::allocator<FuzzyTerm *> >::construct<FuzzyTerm *,FuzzyTerm *>
	add	esp, 12					; 0000000cH

; 1780 :         ++_Last;

	mov	edx, DWORD PTR _this$[ebp]
	mov	eax, DWORD PTR [edx+4]
	add	eax, 4
	mov	ecx, DWORD PTR _this$[ebp]
	mov	DWORD PTR [ecx+4], eax

; 1781 :     }

	add	esp, 4
	cmp	ebp, esp
	call	__RTC_CheckEsp
	mov	esp, ebp
	pop	ebp
	ret	4
??$_Emplace_back@PAVFuzzyTerm@@@?$_Uninitialized_backout_al@V?$allocator@PAVFuzzyTerm@@@std@@@std@@QAEX$$QAPAVFuzzyTerm@@@Z ENDP ; std::_Uninitialized_backout_al<std::allocator<FuzzyTerm *> >::_Emplace_back<FuzzyTerm *>
_TEXT	ENDS
; Function compile flags: /Odtp /RTCsu
; File C:\Program Files\Microsoft Visual Studio\2022\Community\VC\Tools\MSVC\14.42.34433\include\xmemory
;	COMDAT ?_Release@?$_Uninitialized_backout_al@V?$allocator@PAVFuzzyTerm@@@std@@@std@@QAEPAPAVFuzzyTerm@@XZ
_TEXT	SEGMENT
_this$ = -4						; size = 4
?_Release@?$_Uninitialized_backout_al@V?$allocator@PAVFuzzyTerm@@@std@@@std@@QAEPAPAVFuzzyTerm@@XZ PROC ; std::_Uninitialized_backout_al<std::allocator<FuzzyTerm *> >::_Release, COMDAT
; _this$ = ecx

; 1783 :     constexpr pointer _Release() { // suppress any exception handling backout and return _Last

	push	ebp
	mov	ebp, esp
	push	ecx
	mov	DWORD PTR _this$[ebp], ecx

; 1784 :         _First = _Last;

	mov	eax, DWORD PTR _this$[ebp]
	mov	ecx, DWORD PTR _this$[ebp]
	mov	edx, DWORD PTR [ecx+4]
	mov	DWORD PTR [eax], edx

; 1785 :         return _Last;

	mov	eax, DWORD PTR _this$[ebp]
	mov	eax, DWORD PTR [eax+4]

; 1786 :     }

	mov	esp, ebp
	pop	ebp
	ret	0
?_Release@?$_Uninitialized_backout_al@V?$allocator@PAVFuzzyTerm@@@std@@@std@@QAEPAPAVFuzzyTerm@@XZ ENDP ; std::_Uninitialized_backout_al<std::allocator<FuzzyTerm *> >::_Release
_TEXT	ENDS
; Function compile flags: /Odtp /RTCsu
; File C:\Program Files\Microsoft Visual Studio\2022\Community\VC\Tools\MSVC\14.42.34433\include\xmemory
;	COMDAT ??1?$_Uninitialized_backout_al@V?$allocator@PAVFuzzyTerm@@@std@@@std@@QAE@XZ
_TEXT	SEGMENT
_this$ = -4						; size = 4
??1?$_Uninitialized_backout_al@V?$allocator@PAVFuzzyTerm@@@std@@@std@@QAE@XZ PROC ; std::_Uninitialized_backout_al<std::allocator<FuzzyTerm *> >::~_Uninitialized_backout_al<std::allocator<FuzzyTerm *> >, COMDAT
; _this$ = ecx

; 1773 :     _CONSTEXPR20 ~_Uninitialized_backout_al() {

	push	ebp
	mov	ebp, esp
	push	ecx
	mov	DWORD PTR [ebp-4], -858993460		; ccccccccH
	mov	DWORD PTR _this$[ebp], ecx

; 1774 :         _STD _Destroy_range(_First, _Last, _Al);

	mov	eax, DWORD PTR _this$[ebp]
	mov	ecx, DWORD PTR [eax+8]
	push	ecx
	mov	edx, DWORD PTR _this$[ebp]
	mov	eax, DWORD PTR [edx+4]
	push	eax
	mov	ecx, DWORD PTR _this$[ebp]
	mov	edx, DWORD PTR [ecx]
	push	edx
	call	??$_Destroy_range@V?$allocator@PAVFuzzyTerm@@@std@@@std@@YAXPAPAVFuzzyTerm@@QAPAV1@AAV?$allocator@PAVFuzzyTerm@@@0@@Z ; std::_Destroy_range<std::allocator<FuzzyTerm *> >
	add	esp, 12					; 0000000cH

; 1775 :     }

	add	esp, 4
	cmp	ebp, esp
	call	__RTC_CheckEsp
	mov	esp, ebp
	pop	ebp
	ret	0
??1?$_Uninitialized_backout_al@V?$allocator@PAVFuzzyTerm@@@std@@@std@@QAE@XZ ENDP ; std::_Uninitialized_backout_al<std::allocator<FuzzyTerm *> >::~_Uninitialized_backout_al<std::allocator<FuzzyTerm *> >
_TEXT	ENDS
; Function compile flags: /Odtp /RTCsu
; File C:\Program Files\Microsoft Visual Studio\2022\Community\VC\Tools\MSVC\14.42.34433\include\xmemory
;	COMDAT ??0?$_Uninitialized_backout_al@V?$allocator@PAVFuzzyTerm@@@std@@@std@@QAE@PAPAVFuzzyTerm@@AAV?$allocator@PAVFuzzyTerm@@@1@@Z
_TEXT	SEGMENT
_this$ = -4						; size = 4
__Dest$ = 8						; size = 4
__Al_$ = 12						; size = 4
??0?$_Uninitialized_backout_al@V?$allocator@PAVFuzzyTerm@@@std@@@std@@QAE@PAPAVFuzzyTerm@@AAV?$allocator@PAVFuzzyTerm@@@1@@Z PROC ; std::_Uninitialized_backout_al<std::allocator<FuzzyTerm *> >::_Uninitialized_backout_al<std::allocator<FuzzyTerm *> >, COMDAT
; _this$ = ecx

; 1768 :     _CONSTEXPR20 _Uninitialized_backout_al(pointer _Dest, _Alloc& _Al_) : _First(_Dest), _Last(_Dest), _Al(_Al_) {}

	push	ebp
	mov	ebp, esp
	push	ecx
	mov	DWORD PTR _this$[ebp], ecx
	mov	eax, DWORD PTR _this$[ebp]
	mov	ecx, DWORD PTR __Dest$[ebp]
	mov	DWORD PTR [eax], ecx
	mov	edx, DWORD PTR _this$[ebp]
	mov	eax, DWORD PTR __Dest$[ebp]
	mov	DWORD PTR [edx+4], eax
	mov	ecx, DWORD PTR _this$[ebp]
	mov	edx, DWORD PTR __Al_$[ebp]
	mov	DWORD PTR [ecx+8], edx
	mov	eax, DWORD PTR _this$[ebp]
	mov	esp, ebp
	pop	ebp
	ret	8
??0?$_Uninitialized_backout_al@V?$allocator@PAVFuzzyTerm@@@std@@@std@@QAE@PAPAVFuzzyTerm@@AAV?$allocator@PAVFuzzyTerm@@@1@@Z ENDP ; std::_Uninitialized_backout_al<std::allocator<FuzzyTerm *> >::_Uninitialized_backout_al<std::allocator<FuzzyTerm *> >
_TEXT	ENDS
; Function compile flags: /Odtp /RTCsu
; File C:\Program Files\Microsoft Visual Studio\2022\Community\VC\Tools\MSVC\14.42.34433\include\xutility
;	COMDAT ??$_Copy_memmove@PAPAVFuzzyTerm@@PAPAV1@@std@@YAPAPAVFuzzyTerm@@PAPAV1@00@Z
_TEXT	SEGMENT
__Count$ = -28						; size = 4
__Dest_ch$ = -24					; size = 4
__Last_ch$ = -20					; size = 4
__First_ch$ = -16					; size = 4
__DestPtr$ = -12					; size = 4
__LastPtr$ = -8						; size = 4
__FirstPtr$ = -4					; size = 4
__First$ = 8						; size = 4
__Last$ = 12						; size = 4
__Dest$ = 16						; size = 4
??$_Copy_memmove@PAPAVFuzzyTerm@@PAPAV1@@std@@YAPAPAVFuzzyTerm@@PAPAV1@00@Z PROC ; std::_Copy_memmove<FuzzyTerm * *,FuzzyTerm * *>, COMDAT

; 4650 : _OutCtgIt _Copy_memmove(_CtgIt _First, _CtgIt _Last, _OutCtgIt _Dest) {

	push	ebp
	mov	ebp, esp
	sub	esp, 28					; 0000001cH
	mov	eax, -858993460				; ccccccccH
	mov	DWORD PTR [ebp-28], eax
	mov	DWORD PTR [ebp-24], eax
	mov	DWORD PTR [ebp-20], eax
	mov	DWORD PTR [ebp-16], eax
	mov	DWORD PTR [ebp-12], eax
	mov	DWORD PTR [ebp-8], eax
	mov	DWORD PTR [ebp-4], eax

; 4651 :     auto _FirstPtr              = _STD _To_address(_First);

	lea	eax, DWORD PTR __First$[ebp]
	push	eax
	call	??$_To_address@PAPAVFuzzyTerm@@@std@@YA?A_PABQAPAVFuzzyTerm@@@Z ; std::_To_address<FuzzyTerm * *>
	add	esp, 4
	mov	DWORD PTR __FirstPtr$[ebp], eax

; 4652 :     auto _LastPtr               = _STD _To_address(_Last);

	lea	ecx, DWORD PTR __Last$[ebp]
	push	ecx
	call	??$_To_address@PAPAVFuzzyTerm@@@std@@YA?A_PABQAPAVFuzzyTerm@@@Z ; std::_To_address<FuzzyTerm * *>
	add	esp, 4
	mov	DWORD PTR __LastPtr$[ebp], eax

; 4653 :     auto _DestPtr               = _STD _To_address(_Dest);

	lea	edx, DWORD PTR __Dest$[ebp]
	push	edx
	call	??$_To_address@PAPAVFuzzyTerm@@@std@@YA?A_PABQAPAVFuzzyTerm@@@Z ; std::_To_address<FuzzyTerm * *>
	add	esp, 4
	mov	DWORD PTR __DestPtr$[ebp], eax

; 4654 :     const char* const _First_ch = const_cast<const char*>(reinterpret_cast<const volatile char*>(_FirstPtr));

	mov	eax, DWORD PTR __FirstPtr$[ebp]
	mov	DWORD PTR __First_ch$[ebp], eax

; 4655 :     const char* const _Last_ch  = const_cast<const char*>(reinterpret_cast<const volatile char*>(_LastPtr));

	mov	ecx, DWORD PTR __LastPtr$[ebp]
	mov	DWORD PTR __Last_ch$[ebp], ecx

; 4656 :     char* const _Dest_ch        = const_cast<char*>(reinterpret_cast<const volatile char*>(_DestPtr));

	mov	edx, DWORD PTR __DestPtr$[ebp]
	mov	DWORD PTR __Dest_ch$[ebp], edx

; 4657 :     const auto _Count           = static_cast<size_t>(_Last_ch - _First_ch);

	mov	eax, DWORD PTR __Last_ch$[ebp]
	sub	eax, DWORD PTR __First_ch$[ebp]
	mov	DWORD PTR __Count$[ebp], eax

; 4658 :     _CSTD memmove(_Dest_ch, _First_ch, _Count);

	mov	ecx, DWORD PTR __Count$[ebp]
	push	ecx
	mov	edx, DWORD PTR __First_ch$[ebp]
	push	edx
	mov	eax, DWORD PTR __Dest_ch$[ebp]
	push	eax
	call	_memmove
	add	esp, 12					; 0000000cH

; 4659 :     if constexpr (is_pointer_v<_OutCtgIt>) {
; 4660 :         return reinterpret_cast<_OutCtgIt>(_Dest_ch + _Count);

	mov	eax, DWORD PTR __Dest_ch$[ebp]
	add	eax, DWORD PTR __Count$[ebp]

; 4661 :     } else {
; 4662 :         return _Dest + static_cast<_Iter_diff_t<_OutCtgIt>>(_LastPtr - _FirstPtr);
; 4663 :     }
; 4664 : }

	add	esp, 28					; 0000001cH
	cmp	ebp, esp
	call	__RTC_CheckEsp
	mov	esp, ebp
	pop	ebp
	ret	0
??$_Copy_memmove@PAPAVFuzzyTerm@@PAPAV1@@std@@YAPAPAVFuzzyTerm@@PAPAV1@00@Z ENDP ; std::_Copy_memmove<FuzzyTerm * *,FuzzyTerm * *>
_TEXT	ENDS
; Function compile flags: /Odtp /RTCsu
; File C:\Program Files\Microsoft Visual Studio\2022\Community\VC\Tools\MSVC\14.42.34433\include\xutility
;	COMDAT ??$_Get_unwrapped@ABQAPAVFuzzyTerm@@@std@@YA?A_TABQAPAVFuzzyTerm@@@Z
_TEXT	SEGMENT
__It$ = 8						; size = 4
??$_Get_unwrapped@ABQAPAVFuzzyTerm@@@std@@YA?A_TABQAPAVFuzzyTerm@@@Z PROC ; std::_Get_unwrapped<FuzzyTerm * * const &>, COMDAT

; 1327 :     !_Unwrappable_v<_Iter> || _Has_nothrow_unwrapped<_Iter>) {

	push	ebp
	mov	ebp, esp

; 1328 :     // unwrap an iterator previously subjected to _Adl_verify_range or otherwise validated
; 1329 :     if constexpr (is_pointer_v<decay_t<_Iter>>) { // special-case pointers and arrays
; 1330 :         return _It + 0;

	mov	eax, DWORD PTR __It$[ebp]
	mov	eax, DWORD PTR [eax]

; 1331 :     } else if constexpr (_Unwrappable_v<_Iter>) {
; 1332 :         return static_cast<_Iter&&>(_It)._Unwrapped();
; 1333 :     } else {
; 1334 :         return static_cast<_Iter&&>(_It);
; 1335 :     }
; 1336 : }

	pop	ebp
	ret	0
??$_Get_unwrapped@ABQAPAVFuzzyTerm@@@std@@YA?A_TABQAPAVFuzzyTerm@@@Z ENDP ; std::_Get_unwrapped<FuzzyTerm * * const &>
_TEXT	ENDS
; Function compile flags: /Odtp /RTCsu
; File C:\Program Files\Microsoft Visual Studio\2022\Community\VC\Tools\MSVC\14.42.34433\include\type_traits
;	COMDAT ??$addressof@PAVFuzzyTerm@@@std@@YAPAPAVFuzzyTerm@@AAPAV1@@Z
_TEXT	SEGMENT
__Val$ = 8						; size = 4
??$addressof@PAVFuzzyTerm@@@std@@YAPAPAVFuzzyTerm@@AAPAV1@@Z PROC ; std::addressof<FuzzyTerm *>, COMDAT

; 1549 : _NODISCARD constexpr _Ty* addressof(_Ty& _Val) noexcept {

	push	ebp
	mov	ebp, esp

; 1550 :     return __builtin_addressof(_Val);

	mov	eax, DWORD PTR __Val$[ebp]

; 1551 : }

	pop	ebp
	ret	0
??$addressof@PAVFuzzyTerm@@@std@@YAPAPAVFuzzyTerm@@AAPAV1@@Z ENDP ; std::addressof<FuzzyTerm *>
_TEXT	ENDS
; Function compile flags: /Odtp /RTCsu
; File C:\Program Files\Microsoft Visual Studio\2022\Community\VC\Tools\MSVC\14.42.34433\include\xmemory
;	COMDAT ??$_Allocate_manually_vector_aligned@U_Default_allocate_traits@std@@@std@@YAPAXI@Z
_TEXT	SEGMENT
__Ptr$ = -12						; size = 4
__Ptr_container$ = -8					; size = 4
__Block_size$ = -4					; size = 4
__Bytes$ = 8						; size = 4
??$_Allocate_manually_vector_aligned@U_Default_allocate_traits@std@@@std@@YAPAXI@Z PROC ; std::_Allocate_manually_vector_aligned<std::_Default_allocate_traits>, COMDAT

; 151  : __declspec(allocator) void* _Allocate_manually_vector_aligned(const size_t _Bytes) {

	push	ebp
	mov	ebp, esp
	sub	esp, 12					; 0000000cH
	mov	DWORD PTR [ebp-12], -858993460		; ccccccccH
	mov	DWORD PTR [ebp-8], -858993460		; ccccccccH
	mov	DWORD PTR [ebp-4], -858993460		; ccccccccH

; 152  :     // allocate _Bytes manually aligned to at least _Big_allocation_alignment
; 153  :     const size_t _Block_size = _Non_user_size + _Bytes;

	mov	eax, DWORD PTR __Bytes$[ebp]
	add	eax, 39					; 00000027H
	mov	DWORD PTR __Block_size$[ebp], eax

; 154  :     if (_Block_size <= _Bytes) {

	mov	ecx, DWORD PTR __Block_size$[ebp]
	cmp	ecx, DWORD PTR __Bytes$[ebp]
	ja	SHORT $LN8@Allocate_m

; 155  :         _Throw_bad_array_new_length(); // add overflow

	call	?_Throw_bad_array_new_length@std@@YAXXZ	; std::_Throw_bad_array_new_length
	npad	1
$LN8@Allocate_m:

; 156  :     }
; 157  : 
; 158  :     const uintptr_t _Ptr_container = reinterpret_cast<uintptr_t>(_Traits::_Allocate(_Block_size));

	mov	edx, DWORD PTR __Block_size$[ebp]
	push	edx
	call	?_Allocate@_Default_allocate_traits@std@@SAPAXI@Z ; std::_Default_allocate_traits::_Allocate
	add	esp, 4
	mov	DWORD PTR __Ptr_container$[ebp], eax
$LN4@Allocate_m:

; 159  :     _STL_VERIFY(_Ptr_container != 0, "invalid argument"); // validate even in release since we're doing p[-1]

	cmp	DWORD PTR __Ptr_container$[ebp], 0
	je	SHORT $LN9@Allocate_m
	jmp	SHORT $LN6@Allocate_m
$LN9@Allocate_m:
	push	OFFSET $SG48034
	push	OFFSET $SG48035
	push	0
	push	159					; 0000009fH
	push	OFFSET $SG48036
	push	2
	call	__CrtDbgReport
	add	esp, 24					; 00000018H
	cmp	eax, 1
	jne	SHORT $LN12@Allocate_m
	int	3
$LN12@Allocate_m:
	push	0
	push	159					; 0000009fH
	push	OFFSET $SG48037
	push	OFFSET $SG48038
	push	OFFSET $SG48039
	call	__invalid_parameter
	add	esp, 20					; 00000014H
	xor	ecx, ecx
	jne	SHORT $LN9@Allocate_m
$LN6@Allocate_m:
	xor	edx, edx
	jne	SHORT $LN4@Allocate_m

; 160  :     void* const _Ptr = reinterpret_cast<void*>((_Ptr_container + _Non_user_size) & ~(_Big_allocation_alignment - 1));

	mov	eax, DWORD PTR __Ptr_container$[ebp]
	add	eax, 39					; 00000027H
	and	eax, -32				; ffffffe0H
	mov	DWORD PTR __Ptr$[ebp], eax

; 161  :     static_cast<uintptr_t*>(_Ptr)[-1] = _Ptr_container;

	mov	ecx, 4
	imul	edx, ecx, -1
	mov	eax, DWORD PTR __Ptr$[ebp]
	mov	ecx, DWORD PTR __Ptr_container$[ebp]
	mov	DWORD PTR [eax+edx], ecx

; 162  : 
; 163  : #ifdef _DEBUG
; 164  :     static_cast<uintptr_t*>(_Ptr)[-2] = _Big_allocation_sentinel;

	mov	edx, 4
	imul	eax, edx, -2
	mov	ecx, DWORD PTR __Ptr$[ebp]
	mov	DWORD PTR [ecx+eax], -84215046		; fafafafaH

; 165  : #endif // defined(_DEBUG)
; 166  :     return _Ptr;

	mov	eax, DWORD PTR __Ptr$[ebp]
$LN1@Allocate_m:

; 167  : }

	add	esp, 12					; 0000000cH
	cmp	ebp, esp
	call	__RTC_CheckEsp
	mov	esp, ebp
	pop	ebp
	ret	0
??$_Allocate_manually_vector_aligned@U_Default_allocate_traits@std@@@std@@YAPAXI@Z ENDP ; std::_Allocate_manually_vector_aligned<std::_Default_allocate_traits>
_TEXT	ENDS
; Function compile flags: /Odtp /RTCsu
; File C:\Program Files\Microsoft Visual Studio\2022\Community\VC\Tools\MSVC\14.42.34433\include\type_traits
;	COMDAT ??$forward@PAU_Container_base12@std@@@std@@YA$$QAPAU_Container_base12@0@AAPAU10@@Z
_TEXT	SEGMENT
__Arg$ = 8						; size = 4
??$forward@PAU_Container_base12@std@@@std@@YA$$QAPAU_Container_base12@0@AAPAU10@@Z PROC ; std::forward<std::_Container_base12 *>, COMDAT

; 1526 : _NODISCARD _MSVC_INTRINSIC constexpr _Ty&& forward(remove_reference_t<_Ty>& _Arg) noexcept {

	push	ebp
	mov	ebp, esp

; 1527 :     return static_cast<_Ty&&>(_Arg);

	mov	eax, DWORD PTR __Arg$[ebp]

; 1528 : }

	pop	ebp
	ret	0
??$forward@PAU_Container_base12@std@@@std@@YA$$QAPAU_Container_base12@0@AAPAU10@@Z ENDP ; std::forward<std::_Container_base12 *>
_TEXT	ENDS
; Function compile flags: /Odtp /RTCsu
; File C:\Program Files\Microsoft Visual Studio\2022\Community\VC\Tools\MSVC\14.42.34433\include\type_traits
;	COMDAT ??$addressof@U_Container_proxy@std@@@std@@YAPAU_Container_proxy@0@AAU10@@Z
_TEXT	SEGMENT
__Val$ = 8						; size = 4
??$addressof@U_Container_proxy@std@@@std@@YAPAU_Container_proxy@0@AAU10@@Z PROC ; std::addressof<std::_Container_proxy>, COMDAT

; 1549 : _NODISCARD constexpr _Ty* addressof(_Ty& _Val) noexcept {

	push	ebp
	mov	ebp, esp

; 1550 :     return __builtin_addressof(_Val);

	mov	eax, DWORD PTR __Val$[ebp]

; 1551 : }

	pop	ebp
	ret	0
??$addressof@U_Container_proxy@std@@@std@@YAPAU_Container_proxy@0@AAU10@@Z ENDP ; std::addressof<std::_Container_proxy>
_TEXT	ENDS
; Function compile flags: /Odtp /RTCsu
; File C:\Program Files\Microsoft Visual Studio\2022\Community\VC\Tools\MSVC\14.42.34433\include\xmemory
;	COMDAT ?deallocate@?$_Default_allocator_traits@V?$allocator@U_Container_proxy@std@@@std@@@std@@SAXAAV?$allocator@U_Container_proxy@std@@@2@QAU_Container_proxy@2@I@Z
_TEXT	SEGMENT
__Al$ = 8						; size = 4
__Ptr$ = 12						; size = 4
__Count$ = 16						; size = 4
?deallocate@?$_Default_allocator_traits@V?$allocator@U_Container_proxy@std@@@std@@@std@@SAXAAV?$allocator@U_Container_proxy@std@@@2@QAU_Container_proxy@2@I@Z PROC ; std::_Default_allocator_traits<std::allocator<std::_Container_proxy> >::deallocate, COMDAT

; 682  :     static _CONSTEXPR20 void deallocate(_Alloc& _Al, const pointer _Ptr, const size_type _Count) {

	push	ebp
	mov	ebp, esp

; 683  :         // no overflow check on the following multiply; we assume _Allocate did that check
; 684  : #if _HAS_CXX20 // TRANSITION, GH-1532
; 685  :         if (_STD is_constant_evaluated()) {
; 686  :             _Al.deallocate(_Ptr, _Count);
; 687  :         } else
; 688  : #endif // _HAS_CXX20
; 689  :         {
; 690  :             (void) _Al;
; 691  :             _STD _Deallocate<_New_alignof<value_type>>(_Ptr, sizeof(value_type) * _Count);

	mov	eax, DWORD PTR __Count$[ebp]
	shl	eax, 3
	push	eax
	mov	ecx, DWORD PTR __Ptr$[ebp]
	push	ecx
	call	??$_Deallocate@$07@std@@YAXPAXI@Z	; std::_Deallocate<8>
	add	esp, 8

; 692  :         }
; 693  :     }

	cmp	ebp, esp
	call	__RTC_CheckEsp
	pop	ebp
	ret	0
?deallocate@?$_Default_allocator_traits@V?$allocator@U_Container_proxy@std@@@std@@@std@@SAXAAV?$allocator@U_Container_proxy@std@@@2@QAU_Container_proxy@2@I@Z ENDP ; std::_Default_allocator_traits<std::allocator<std::_Container_proxy> >::deallocate
_TEXT	ENDS
; Function compile flags: /Odtp /RTCsu
; File C:\Program Files\Microsoft Visual Studio\2022\Community\VC\Tools\MSVC\14.42.34433\include\xmemory
;	COMDAT ??$_Uninitialized_move@PAPAVFuzzyTerm@@V?$allocator@PAVFuzzyTerm@@@std@@@std@@YAPAPAVFuzzyTerm@@QAPAV1@0PAPAV1@AAV?$allocator@PAVFuzzyTerm@@@0@@Z
_TEXT	SEGMENT
$T2 = -44						; size = 4
__Backout$ = -36					; size = 12
__ULast$ = -20						; size = 4
__UFirst$ = -16						; size = 4
__$EHRec$ = -12						; size = 12
__First$ = 8						; size = 4
__Last$ = 12						; size = 4
__Dest$ = 16						; size = 4
__Al$ = 20						; size = 4
??$_Uninitialized_move@PAPAVFuzzyTerm@@V?$allocator@PAVFuzzyTerm@@@std@@@std@@YAPAPAVFuzzyTerm@@QAPAV1@0PAPAV1@AAV?$allocator@PAVFuzzyTerm@@@0@@Z PROC ; std::_Uninitialized_move<FuzzyTerm * *,std::allocator<FuzzyTerm *> >, COMDAT

; 1904 :     const _InIt _First, const _InIt _Last, _Alloc_ptr_t<_Alloc> _Dest, _Alloc& _Al) {

	push	ebp
	mov	ebp, esp
	push	-1
	push	__ehhandler$??$_Uninitialized_move@PAPAVFuzzyTerm@@V?$allocator@PAVFuzzyTerm@@@std@@@std@@YAPAPAVFuzzyTerm@@QAPAV1@0PAPAV1@AAV?$allocator@PAVFuzzyTerm@@@0@@Z
	mov	eax, DWORD PTR fs:0
	push	eax
	sub	esp, 32					; 00000020H
	mov	eax, -858993460				; ccccccccH
	mov	DWORD PTR [ebp-44], eax
	mov	DWORD PTR [ebp-40], eax
	mov	DWORD PTR [ebp-36], eax
	mov	DWORD PTR [ebp-32], eax
	mov	DWORD PTR [ebp-28], eax
	mov	DWORD PTR [ebp-24], eax
	mov	DWORD PTR [ebp-20], eax
	mov	DWORD PTR [ebp-16], eax
	mov	eax, DWORD PTR ___security_cookie
	xor	eax, ebp
	push	eax
	lea	eax, DWORD PTR __$EHRec$[ebp]
	mov	DWORD PTR fs:0, eax

; 1905 :     // move [_First, _Last) to raw _Dest, using _Al
; 1906 :     // note: only called internally from elsewhere in the STL
; 1907 :     using _Ptrval     = typename _Alloc::value_type*;
; 1908 :     auto _UFirst      = _STD _Get_unwrapped(_First);

	lea	eax, DWORD PTR __First$[ebp]
	push	eax
	call	??$_Get_unwrapped@ABQAPAVFuzzyTerm@@@std@@YA?A_TABQAPAVFuzzyTerm@@@Z ; std::_Get_unwrapped<FuzzyTerm * * const &>
	add	esp, 4
	mov	DWORD PTR __UFirst$[ebp], eax

; 1909 :     const auto _ULast = _STD _Get_unwrapped(_Last);

	lea	ecx, DWORD PTR __Last$[ebp]
	push	ecx
	call	??$_Get_unwrapped@ABQAPAVFuzzyTerm@@@std@@YA?A_TABQAPAVFuzzyTerm@@@Z ; std::_Get_unwrapped<FuzzyTerm * * const &>
	add	esp, 4
	mov	DWORD PTR __ULast$[ebp], eax

; 1910 :     if constexpr (conjunction_v<bool_constant<_Iter_move_cat<decltype(_UFirst), _Ptrval>::_Bitcopy_constructible>,
; 1911 :                       _Uses_default_construct<_Alloc, _Ptrval, decltype(_STD move(*_UFirst))>>) {
; 1912 : #if _HAS_CXX20
; 1913 :         if (!_STD is_constant_evaluated())
; 1914 : #endif // _HAS_CXX20
; 1915 :         {
; 1916 :             _STD _Copy_memmove(_UFirst, _ULast, _STD _Unfancy(_Dest));

	mov	edx, DWORD PTR __Dest$[ebp]
	push	edx
	call	??$_Unfancy@PAVFuzzyTerm@@@std@@YAPAPAVFuzzyTerm@@PAPAV1@@Z ; std::_Unfancy<FuzzyTerm *>
	add	esp, 4
	push	eax
	mov	eax, DWORD PTR __ULast$[ebp]
	push	eax
	mov	ecx, DWORD PTR __UFirst$[ebp]
	push	ecx
	call	??$_Copy_memmove@PAPAVFuzzyTerm@@PAPAV1@@std@@YAPAPAVFuzzyTerm@@PAPAV1@00@Z ; std::_Copy_memmove<FuzzyTerm * *,FuzzyTerm * *>
	add	esp, 12					; 0000000cH

; 1917 :             return _Dest + (_ULast - _UFirst);

	mov	edx, DWORD PTR __ULast$[ebp]
	sub	edx, DWORD PTR __UFirst$[ebp]
	sar	edx, 2
	mov	eax, DWORD PTR __Dest$[ebp]
	lea	eax, DWORD PTR [eax+edx*4]
	jmp	SHORT $LN1@Uninitiali

; 1918 :         }
; 1919 :     }
; 1920 : 
; 1921 :     _Uninitialized_backout_al<_Alloc> _Backout{_Dest, _Al};

	mov	ecx, DWORD PTR __Al$[ebp]
	push	ecx
	mov	edx, DWORD PTR __Dest$[ebp]
	push	edx
	lea	ecx, DWORD PTR __Backout$[ebp]
	call	??0?$_Uninitialized_backout_al@V?$allocator@PAVFuzzyTerm@@@std@@@std@@QAE@PAPAVFuzzyTerm@@AAV?$allocator@PAVFuzzyTerm@@@1@@Z ; std::_Uninitialized_backout_al<std::allocator<FuzzyTerm *> >::_Uninitialized_backout_al<std::allocator<FuzzyTerm *> >
	mov	DWORD PTR __$EHRec$[ebp+8], 0

; 1922 :     for (; _UFirst != _ULast; ++_UFirst) {

	jmp	SHORT $LN4@Uninitiali
$LN2@Uninitiali:
	mov	eax, DWORD PTR __UFirst$[ebp]
	add	eax, 4
	mov	DWORD PTR __UFirst$[ebp], eax
$LN4@Uninitiali:
	mov	ecx, DWORD PTR __UFirst$[ebp]
	cmp	ecx, DWORD PTR __ULast$[ebp]
	je	SHORT $LN3@Uninitiali

; 1923 :         _Backout._Emplace_back(_STD move(*_UFirst));

	mov	edx, DWORD PTR __UFirst$[ebp]
	push	edx
	call	??$move@AAPAVFuzzyTerm@@@std@@YA$$QAPAVFuzzyTerm@@AAPAV1@@Z ; std::move<FuzzyTerm * &>
	add	esp, 4
	push	eax
	lea	ecx, DWORD PTR __Backout$[ebp]
	call	??$_Emplace_back@PAVFuzzyTerm@@@?$_Uninitialized_backout_al@V?$allocator@PAVFuzzyTerm@@@std@@@std@@QAEX$$QAPAVFuzzyTerm@@@Z ; std::_Uninitialized_backout_al<std::allocator<FuzzyTerm *> >::_Emplace_back<FuzzyTerm *>
	npad	1

; 1924 :     }

	jmp	SHORT $LN2@Uninitiali
$LN3@Uninitiali:

; 1925 : 
; 1926 :     return _Backout._Release();

	lea	ecx, DWORD PTR __Backout$[ebp]
	call	?_Release@?$_Uninitialized_backout_al@V?$allocator@PAVFuzzyTerm@@@std@@@std@@QAEPAPAVFuzzyTerm@@XZ ; std::_Uninitialized_backout_al<std::allocator<FuzzyTerm *> >::_Release
	mov	DWORD PTR $T2[ebp], eax
	mov	DWORD PTR __$EHRec$[ebp+8], -1
	lea	ecx, DWORD PTR __Backout$[ebp]
	call	??1?$_Uninitialized_backout_al@V?$allocator@PAVFuzzyTerm@@@std@@@std@@QAE@XZ ; std::_Uninitialized_backout_al<std::allocator<FuzzyTerm *> >::~_Uninitialized_backout_al<std::allocator<FuzzyTerm *> >
	mov	eax, DWORD PTR $T2[ebp]
$LN1@Uninitiali:

; 1927 : }

	push	edx
	mov	ecx, ebp
	push	eax
	lea	edx, DWORD PTR $LN10@Uninitiali
	call	@_RTC_CheckStackVars@8
	pop	eax
	pop	edx
	mov	ecx, DWORD PTR __$EHRec$[ebp]
	mov	DWORD PTR fs:0, ecx
	pop	ecx
	add	esp, 44					; 0000002cH
	cmp	ebp, esp
	call	__RTC_CheckEsp
	mov	esp, ebp
	pop	ebp
	ret	0
	npad	1
$LN10@Uninitiali:
	DD	1
	DD	$LN9@Uninitiali
$LN9@Uninitiali:
	DD	-36					; ffffffdcH
	DD	12					; 0000000cH
	DD	$LN7@Uninitiali
$LN7@Uninitiali:
	DB	95					; 0000005fH
	DB	66					; 00000042H
	DB	97					; 00000061H
	DB	99					; 00000063H
	DB	107					; 0000006bH
	DB	111					; 0000006fH
	DB	117					; 00000075H
	DB	116					; 00000074H
	DB	0
_TEXT	ENDS
;	COMDAT text$x
text$x	SEGMENT
__unwindfunclet$??$_Uninitialized_move@PAPAVFuzzyTerm@@V?$allocator@PAVFuzzyTerm@@@std@@@std@@YAPAPAVFuzzyTerm@@QAPAV1@0PAPAV1@AAV?$allocator@PAVFuzzyTerm@@@0@@Z$0:
	lea	ecx, DWORD PTR __Backout$[ebp]
	jmp	??1?$_Uninitialized_backout_al@V?$allocator@PAVFuzzyTerm@@@std@@@std@@QAE@XZ ; std::_Uninitialized_backout_al<std::allocator<FuzzyTerm *> >::~_Uninitialized_backout_al<std::allocator<FuzzyTerm *> >
	int	3
	int	3
	int	3
	int	3
	int	3
__ehhandler$??$_Uninitialized_move@PAPAVFuzzyTerm@@V?$allocator@PAVFuzzyTerm@@@std@@@std@@YAPAPAVFuzzyTerm@@QAPAV1@0PAPAV1@AAV?$allocator@PAVFuzzyTerm@@@0@@Z:
	npad	1
	npad	1
	mov	edx, DWORD PTR [esp+8]
	lea	eax, DWORD PTR [edx+12]
	mov	ecx, DWORD PTR [edx-36]
	xor	ecx, eax
	call	@__security_check_cookie@4
	mov	eax, OFFSET __ehfuncinfo$??$_Uninitialized_move@PAPAVFuzzyTerm@@V?$allocator@PAVFuzzyTerm@@@std@@@std@@YAPAPAVFuzzyTerm@@QAPAV1@0PAPAV1@AAV?$allocator@PAVFuzzyTerm@@@0@@Z
	jmp	___CxxFrameHandler3
text$x	ENDS
??$_Uninitialized_move@PAPAVFuzzyTerm@@V?$allocator@PAVFuzzyTerm@@@std@@@std@@YAPAPAVFuzzyTerm@@QAPAV1@0PAPAV1@AAV?$allocator@PAVFuzzyTerm@@@0@@Z ENDP ; std::_Uninitialized_move<FuzzyTerm * *,std::allocator<FuzzyTerm *> >
; Function compile flags: /Odtp /RTCsu
; File C:\Program Files\Microsoft Visual Studio\2022\Community\VC\Tools\MSVC\14.42.34433\include\xmemory
;	COMDAT ??$construct@PAVFuzzyTerm@@PAV1@@?$_Default_allocator_traits@V?$allocator@PAVFuzzyTerm@@@std@@@std@@SAXAAV?$allocator@PAVFuzzyTerm@@@1@QAPAVFuzzyTerm@@$$QAPAV3@@Z
_TEXT	SEGMENT
$T1 = -4						; size = 4
___formal$ = 8						; size = 4
__Ptr$ = 12						; size = 4
_<_Args_0>$ = 16					; size = 4
??$construct@PAVFuzzyTerm@@PAV1@@?$_Default_allocator_traits@V?$allocator@PAVFuzzyTerm@@@std@@@std@@SAXAAV?$allocator@PAVFuzzyTerm@@@1@QAPAVFuzzyTerm@@$$QAPAV3@@Z PROC ; std::_Default_allocator_traits<std::allocator<FuzzyTerm *> >::construct<FuzzyTerm *,FuzzyTerm *>, COMDAT

; 696  :     static _CONSTEXPR20 void construct(_Alloc&, _Objty* const _Ptr, _Types&&... _Args) {

	push	ebp
	mov	ebp, esp
	push	ecx
	mov	DWORD PTR [ebp-4], -858993460		; ccccccccH

; 697  : #if _HAS_CXX20
; 698  :         _STD construct_at(_Ptr, _STD forward<_Types>(_Args)...);
; 699  : #else // ^^^ _HAS_CXX20 / !_HAS_CXX20 vvv
; 700  :         ::new (const_cast<void*>(static_cast<const volatile void*>(_Ptr))) _Objty(_STD forward<_Types>(_Args)...);

	mov	eax, DWORD PTR __Ptr$[ebp]
	push	eax
	push	4
	call	??2@YAPAXIPAX@Z				; operator new
	add	esp, 8
	mov	DWORD PTR $T1[ebp], eax
	mov	ecx, DWORD PTR _<_Args_0>$[ebp]
	push	ecx
	call	??$forward@PAVFuzzyTerm@@@std@@YA$$QAPAVFuzzyTerm@@AAPAV1@@Z ; std::forward<FuzzyTerm *>
	add	esp, 4
	mov	edx, DWORD PTR $T1[ebp]
	mov	eax, DWORD PTR [eax]
	mov	DWORD PTR [edx], eax

; 701  : #endif // ^^^ !_HAS_CXX20 ^^^
; 702  :     }

	add	esp, 4
	cmp	ebp, esp
	call	__RTC_CheckEsp
	mov	esp, ebp
	pop	ebp
	ret	0
??$construct@PAVFuzzyTerm@@PAV1@@?$_Default_allocator_traits@V?$allocator@PAVFuzzyTerm@@@std@@@std@@SAXAAV?$allocator@PAVFuzzyTerm@@@1@QAPAVFuzzyTerm@@$$QAPAV3@@Z ENDP ; std::_Default_allocator_traits<std::allocator<FuzzyTerm *> >::construct<FuzzyTerm *,FuzzyTerm *>
_TEXT	ENDS
; Function compile flags: /Odtp /RTCsu
; File C:\Program Files\Microsoft Visual Studio\2022\Community\VC\Tools\MSVC\14.42.34433\include\xmemory
;	COMDAT ??$_Unfancy@PAVFuzzyTerm@@@std@@YAPAPAVFuzzyTerm@@PAPAV1@@Z
_TEXT	SEGMENT
__Ptr$ = 8						; size = 4
??$_Unfancy@PAVFuzzyTerm@@@std@@YAPAPAVFuzzyTerm@@PAPAV1@@Z PROC ; std::_Unfancy<FuzzyTerm *>, COMDAT

; 35   : _NODISCARD constexpr _Ty* _Unfancy(_Ty* _Ptr) noexcept { // do nothing for plain pointers

	push	ebp
	mov	ebp, esp

; 36   :     return _Ptr;

	mov	eax, DWORD PTR __Ptr$[ebp]

; 37   : }

	pop	ebp
	ret	0
??$_Unfancy@PAVFuzzyTerm@@@std@@YAPAPAVFuzzyTerm@@PAPAV1@@Z ENDP ; std::_Unfancy<FuzzyTerm *>
_TEXT	ENDS
; Function compile flags: /Odtp /RTCsu
; File C:\Program Files\Microsoft Visual Studio\2022\Community\VC\Tools\MSVC\14.42.34433\include\xmemory
;	COMDAT ??$_Allocate_at_least_helper@V?$allocator@PAVFuzzyTerm@@@std@@@std@@YAPAPAVFuzzyTerm@@AAV?$allocator@PAVFuzzyTerm@@@0@AAI@Z
_TEXT	SEGMENT
__Al$ = 8						; size = 4
__Count$ = 12						; size = 4
??$_Allocate_at_least_helper@V?$allocator@PAVFuzzyTerm@@@std@@@std@@YAPAPAVFuzzyTerm@@AAV?$allocator@PAVFuzzyTerm@@@0@AAI@Z PROC ; std::_Allocate_at_least_helper<std::allocator<FuzzyTerm *> >, COMDAT

; 2173 :     _Alloc& _Al, _CRT_GUARDOVERFLOW typename allocator_traits<_Alloc>::size_type& _Count) {

	push	ebp
	mov	ebp, esp

; 2174 : #if _HAS_CXX23
; 2175 :     if constexpr (_Should_allocate_at_least<_Alloc>) {
; 2176 :         auto [_Ptr, _Allocated] = _Al.allocate_at_least(_Count);
; 2177 :         _Count                  = _Allocated;
; 2178 :         return _Ptr;
; 2179 :     } else
; 2180 : #endif // _HAS_CXX23
; 2181 :     {
; 2182 :         return _Al.allocate(_Count);

	mov	eax, DWORD PTR __Count$[ebp]
	mov	ecx, DWORD PTR [eax]
	push	ecx
	mov	ecx, DWORD PTR __Al$[ebp]
	call	?allocate@?$allocator@PAVFuzzyTerm@@@std@@QAEPAPAVFuzzyTerm@@I@Z ; std::allocator<FuzzyTerm *>::allocate

; 2183 :     }
; 2184 : }

	cmp	ebp, esp
	call	__RTC_CheckEsp
	pop	ebp
	ret	0
??$_Allocate_at_least_helper@V?$allocator@PAVFuzzyTerm@@@std@@@std@@YAPAPAVFuzzyTerm@@AAV?$allocator@PAVFuzzyTerm@@@0@AAI@Z ENDP ; std::_Allocate_at_least_helper<std::allocator<FuzzyTerm *> >
_TEXT	ENDS
; Function compile flags: /Odtp /RTCsu
; File C:\Program Files\Microsoft Visual Studio\2022\Community\VC\Tools\MSVC\14.42.34433\include\xutility
;	COMDAT ??$_Construct_in_place@PAVFuzzyTerm@@PAV1@@std@@YAXAAPAVFuzzyTerm@@$$QAPAV1@@Z
_TEXT	SEGMENT
$T1 = -4						; size = 4
__Obj$ = 8						; size = 4
_<_Args_0>$ = 12					; size = 4
??$_Construct_in_place@PAVFuzzyTerm@@PAV1@@std@@YAXAAPAVFuzzyTerm@@$$QAPAV1@@Z PROC ; std::_Construct_in_place<FuzzyTerm *,FuzzyTerm *>, COMDAT

; 399  :     is_nothrow_constructible_v<_Ty, _Types...>) {

	push	ebp
	mov	ebp, esp
	push	ecx
	mov	DWORD PTR [ebp-4], -858993460		; ccccccccH

; 400  : #if _HAS_CXX20
; 401  :     if (_STD is_constant_evaluated()) {
; 402  :         _STD construct_at(_STD addressof(_Obj), _STD forward<_Types>(_Args)...);
; 403  :     } else
; 404  : #endif // _HAS_CXX20
; 405  :     {
; 406  :         ::new (static_cast<void*>(_STD addressof(_Obj))) _Ty(_STD forward<_Types>(_Args)...);

	mov	eax, DWORD PTR __Obj$[ebp]
	push	eax
	call	??$addressof@PAVFuzzyTerm@@@std@@YAPAPAVFuzzyTerm@@AAPAV1@@Z ; std::addressof<FuzzyTerm *>
	add	esp, 4
	push	eax
	push	4
	call	??2@YAPAXIPAX@Z				; operator new
	add	esp, 8
	mov	DWORD PTR $T1[ebp], eax
	mov	ecx, DWORD PTR _<_Args_0>$[ebp]
	push	ecx
	call	??$forward@PAVFuzzyTerm@@@std@@YA$$QAPAVFuzzyTerm@@AAPAV1@@Z ; std::forward<FuzzyTerm *>
	add	esp, 4
	mov	edx, DWORD PTR $T1[ebp]
	mov	eax, DWORD PTR [eax]
	mov	DWORD PTR [edx], eax

; 407  :     }
; 408  : }

	add	esp, 4
	cmp	ebp, esp
	call	__RTC_CheckEsp
	mov	esp, ebp
	pop	ebp
	ret	0
??$_Construct_in_place@PAVFuzzyTerm@@PAV1@@std@@YAXAAPAVFuzzyTerm@@$$QAPAV1@@Z ENDP ; std::_Construct_in_place<FuzzyTerm *,FuzzyTerm *>
_TEXT	ENDS
; Function compile flags: /Odtp /RTCsu
; File C:\Program Files\Microsoft Visual Studio\2022\Community\VC\Tools\MSVC\14.42.34433\include\utility
;	COMDAT ??$_Max_limit@H@std@@YAHXZ
_TEXT	SEGMENT
__Unsigned_max$1 = -4					; size = 4
??$_Max_limit@H@std@@YAHXZ PROC				; std::_Max_limit<int>, COMDAT

; 854  : _NODISCARD constexpr _Ty _Max_limit() noexcept { // same as (numeric_limits<_Ty>::max)(), less throughput cost

	push	ebp
	mov	ebp, esp
	push	ecx

; 855  :     _STL_INTERNAL_STATIC_ASSERT(is_integral_v<_Ty>); // doesn't attempt to handle all types
; 856  :     if constexpr (is_signed_v<_Ty>) {
; 857  :         constexpr auto _Unsigned_max = static_cast<make_unsigned_t<_Ty>>(-1);

	mov	DWORD PTR __Unsigned_max$1[ebp], -1

; 858  :         return static_cast<_Ty>(_Unsigned_max >> 1);

	mov	eax, 2147483647				; 7fffffffH

; 859  :     } else {
; 860  :         return static_cast<_Ty>(-1);
; 861  :     }
; 862  : }

	mov	esp, ebp
	pop	ebp
	ret	0
??$_Max_limit@H@std@@YAHXZ ENDP				; std::_Max_limit<int>
_TEXT	ENDS
; Function compile flags: /Odtp /RTCsu
; File C:\Program Files\Microsoft Visual Studio\2022\Community\VC\Tools\MSVC\14.42.34433\include\xmemory
;	COMDAT ??$_Allocate@$07U_Default_allocate_traits@std@@@std@@YAPAXI@Z
_TEXT	SEGMENT
__Bytes$ = 8						; size = 4
??$_Allocate@$07U_Default_allocate_traits@std@@@std@@YAPAXI@Z PROC ; std::_Allocate<8,std::_Default_allocate_traits>, COMDAT

; 194  : __declspec(allocator) _CONSTEXPR20 void* _Allocate(const size_t _Bytes) {

	push	ebp
	mov	ebp, esp

; 195  :     // allocate _Bytes
; 196  :     if (_Bytes == 0) {

	cmp	DWORD PTR __Bytes$[ebp], 0
	jne	SHORT $LN2@Allocate

; 197  :         return nullptr;

	xor	eax, eax
	jmp	SHORT $LN1@Allocate
$LN2@Allocate:

; 198  :     }
; 199  : 
; 200  : #if _HAS_CXX20 // TRANSITION, GH-1532
; 201  :     if (_STD is_constant_evaluated()) {
; 202  :         return _Traits::_Allocate(_Bytes);
; 203  :     }
; 204  : #endif // _HAS_CXX20
; 205  : 
; 206  : #ifdef __cpp_aligned_new
; 207  :     if constexpr (_Align > __STDCPP_DEFAULT_NEW_ALIGNMENT__) {
; 208  :         size_t _Passed_align = _Align;
; 209  : #if defined(_M_IX86) || defined(_M_X64)
; 210  :         if (_Bytes >= _Big_allocation_threshold) {
; 211  :             // boost the alignment of big allocations to help autovectorization
; 212  :             _Passed_align = (_STD max)(_Align, _Big_allocation_alignment);
; 213  :         }
; 214  : #endif // defined(_M_IX86) || defined(_M_X64)
; 215  :         return _Traits::_Allocate_aligned(_Bytes, _Passed_align);
; 216  :     } else
; 217  : #endif // defined(__cpp_aligned_new)
; 218  :     {
; 219  : #if defined(_M_IX86) || defined(_M_X64)
; 220  :         if (_Bytes >= _Big_allocation_threshold) {

	cmp	DWORD PTR __Bytes$[ebp], 4096		; 00001000H
	jb	SHORT $LN3@Allocate

; 221  :             // boost the alignment of big allocations to help autovectorization
; 222  :             return _Allocate_manually_vector_aligned<_Traits>(_Bytes);

	mov	eax, DWORD PTR __Bytes$[ebp]
	push	eax
	call	??$_Allocate_manually_vector_aligned@U_Default_allocate_traits@std@@@std@@YAPAXI@Z ; std::_Allocate_manually_vector_aligned<std::_Default_allocate_traits>
	add	esp, 4
	jmp	SHORT $LN1@Allocate
$LN3@Allocate:

; 223  :         }
; 224  : #endif // defined(_M_IX86) || defined(_M_X64)
; 225  :         return _Traits::_Allocate(_Bytes);

	mov	ecx, DWORD PTR __Bytes$[ebp]
	push	ecx
	call	?_Allocate@_Default_allocate_traits@std@@SAPAXI@Z ; std::_Default_allocate_traits::_Allocate
	add	esp, 4
$LN1@Allocate:

; 226  :     }
; 227  : }

	cmp	ebp, esp
	call	__RTC_CheckEsp
	pop	ebp
	ret	0
??$_Allocate@$07U_Default_allocate_traits@std@@@std@@YAPAXI@Z ENDP ; std::_Allocate<8,std::_Default_allocate_traits>
_TEXT	ENDS
; Function compile flags: /Odtp /RTCsu
; File C:\Program Files\Microsoft Visual Studio\2022\Community\VC\Tools\MSVC\14.42.34433\include\xmemory
;	COMDAT ??$_Get_size_of_n@$07@std@@YAII@Z
_TEXT	SEGMENT
__Max_possible$1 = -8					; size = 4
__Overflow_is_possible$ = -1				; size = 1
__Count$ = 8						; size = 4
??$_Get_size_of_n@$07@std@@YAII@Z PROC			; std::_Get_size_of_n<8>, COMDAT

; 79   : _NODISCARD constexpr size_t _Get_size_of_n(const size_t _Count) {

	push	ebp
	mov	ebp, esp
	sub	esp, 8
	mov	DWORD PTR [ebp-8], -858993460		; ccccccccH
	mov	DWORD PTR [ebp-4], -858993460		; ccccccccH

; 80   :     constexpr bool _Overflow_is_possible = _Ty_size > 1;

	mov	BYTE PTR __Overflow_is_possible$[ebp], 1

; 81   : 
; 82   :     if constexpr (_Overflow_is_possible) {
; 83   :         constexpr size_t _Max_possible = static_cast<size_t>(-1) / _Ty_size;

	mov	DWORD PTR __Max_possible$1[ebp], 536870911 ; 1fffffffH

; 84   :         if (_Count > _Max_possible) {

	cmp	DWORD PTR __Count$[ebp], 536870911	; 1fffffffH
	jbe	SHORT $LN2@Get_size_o

; 85   :             _Throw_bad_array_new_length(); // multiply overflow

	call	?_Throw_bad_array_new_length@std@@YAXXZ	; std::_Throw_bad_array_new_length
	npad	1
$LN2@Get_size_o:

; 86   :         }
; 87   :     }
; 88   : 
; 89   :     return _Count * _Ty_size;

	mov	eax, DWORD PTR __Count$[ebp]
	shl	eax, 3
$LN1@Get_size_o:

; 90   : }

	add	esp, 8
	cmp	ebp, esp
	call	__RTC_CheckEsp
	mov	esp, ebp
	pop	ebp
	ret	0
??$_Get_size_of_n@$07@std@@YAII@Z ENDP			; std::_Get_size_of_n<8>
_TEXT	ENDS
; Function compile flags: /Odtp /RTCsu
; File C:\Program Files\Microsoft Visual Studio\2022\Community\VC\Tools\MSVC\14.42.34433\include\xutility
;	COMDAT ??$_Construct_in_place@U_Container_proxy@std@@PAU_Container_base12@2@@std@@YAXAAU_Container_proxy@0@$$QAPAU_Container_base12@0@@Z
_TEXT	SEGMENT
$T1 = -4						; size = 4
__Obj$ = 8						; size = 4
_<_Args_0>$ = 12					; size = 4
??$_Construct_in_place@U_Container_proxy@std@@PAU_Container_base12@2@@std@@YAXAAU_Container_proxy@0@$$QAPAU_Container_base12@0@@Z PROC ; std::_Construct_in_place<std::_Container_proxy,std::_Container_base12 *>, COMDAT

; 399  :     is_nothrow_constructible_v<_Ty, _Types...>) {

	push	ebp
	mov	ebp, esp
	push	ecx
	mov	DWORD PTR [ebp-4], -858993460		; ccccccccH

; 400  : #if _HAS_CXX20
; 401  :     if (_STD is_constant_evaluated()) {
; 402  :         _STD construct_at(_STD addressof(_Obj), _STD forward<_Types>(_Args)...);
; 403  :     } else
; 404  : #endif // _HAS_CXX20
; 405  :     {
; 406  :         ::new (static_cast<void*>(_STD addressof(_Obj))) _Ty(_STD forward<_Types>(_Args)...);

	mov	eax, DWORD PTR __Obj$[ebp]
	push	eax
	call	??$addressof@U_Container_proxy@std@@@std@@YAPAU_Container_proxy@0@AAU10@@Z ; std::addressof<std::_Container_proxy>
	add	esp, 4
	push	eax
	push	8
	call	??2@YAPAXIPAX@Z				; operator new
	add	esp, 8
	mov	DWORD PTR $T1[ebp], eax
	mov	ecx, DWORD PTR _<_Args_0>$[ebp]
	push	ecx
	call	??$forward@PAU_Container_base12@std@@@std@@YA$$QAPAU_Container_base12@0@AAPAU10@@Z ; std::forward<std::_Container_base12 *>
	add	esp, 4
	mov	edx, DWORD PTR [eax]
	push	edx
	mov	ecx, DWORD PTR $T1[ebp]
	call	??0_Container_proxy@std@@QAE@PAU_Container_base12@1@@Z ; std::_Container_proxy::_Container_proxy
	npad	1

; 407  :     }
; 408  : }

	add	esp, 4
	cmp	ebp, esp
	call	__RTC_CheckEsp
	mov	esp, ebp
	pop	ebp
	ret	0
??$_Construct_in_place@U_Container_proxy@std@@PAU_Container_base12@2@@std@@YAXAAU_Container_proxy@0@$$QAPAU_Container_base12@0@@Z ENDP ; std::_Construct_in_place<std::_Container_proxy,std::_Container_base12 *>
_TEXT	ENDS
; Function compile flags: /Odtp /RTCsu
; File C:\Program Files\Microsoft Visual Studio\2022\Community\VC\Tools\MSVC\14.42.34433\include\xmemory
;	COMDAT ??$_Unfancy@U_Container_proxy@std@@@std@@YAPAU_Container_proxy@0@PAU10@@Z
_TEXT	SEGMENT
__Ptr$ = 8						; size = 4
??$_Unfancy@U_Container_proxy@std@@@std@@YAPAU_Container_proxy@0@PAU10@@Z PROC ; std::_Unfancy<std::_Container_proxy>, COMDAT

; 35   : _NODISCARD constexpr _Ty* _Unfancy(_Ty* _Ptr) noexcept { // do nothing for plain pointers

	push	ebp
	mov	ebp, esp

; 36   :     return _Ptr;

	mov	eax, DWORD PTR __Ptr$[ebp]

; 37   : }

	pop	ebp
	ret	0
??$_Unfancy@U_Container_proxy@std@@@std@@YAPAU_Container_proxy@0@PAU10@@Z ENDP ; std::_Unfancy<std::_Container_proxy>
_TEXT	ENDS
; Function compile flags: /Odtp /RTCsu
; File C:\Program Files\Microsoft Visual Studio\2022\Community\VC\Tools\MSVC\14.42.34433\include\xmemory
;	COMDAT ??$_Deallocate_plain@V?$allocator@U_Container_proxy@std@@@std@@@std@@YAXAAV?$allocator@U_Container_proxy@std@@@0@QAU_Container_proxy@0@@Z
_TEXT	SEGMENT
__$EHRec$ = -12						; size = 12
__Al$ = 8						; size = 4
__Ptr$ = 12						; size = 4
??$_Deallocate_plain@V?$allocator@U_Container_proxy@std@@@std@@@std@@YAXAAV?$allocator@U_Container_proxy@std@@@0@QAU_Container_proxy@0@@Z PROC ; std::_Deallocate_plain<std::allocator<std::_Container_proxy> >, COMDAT

; 1099 : _CONSTEXPR20 void _Deallocate_plain(_Alloc& _Al, typename _Alloc::value_type* const _Ptr) noexcept {

	push	ebp
	mov	ebp, esp
	push	-1
	push	__ehhandler$??$_Deallocate_plain@V?$allocator@U_Container_proxy@std@@@std@@@std@@YAXAAV?$allocator@U_Container_proxy@std@@@0@QAU_Container_proxy@0@@Z
	mov	eax, DWORD PTR fs:0
	push	eax
	mov	eax, DWORD PTR ___security_cookie
	xor	eax, ebp
	push	eax
	lea	eax, DWORD PTR __$EHRec$[ebp]
	mov	DWORD PTR fs:0, eax

; 1100 :     // deallocate a plain pointer using an allocator
; 1101 :     using _Alloc_traits = allocator_traits<_Alloc>;
; 1102 :     if constexpr (is_same_v<_Alloc_ptr_t<_Alloc>, typename _Alloc::value_type*>) {
; 1103 :         _Alloc_traits::deallocate(_Al, _Ptr, 1);

	push	1
	mov	eax, DWORD PTR __Ptr$[ebp]
	push	eax
	mov	ecx, DWORD PTR __Al$[ebp]
	push	ecx
	call	?deallocate@?$_Default_allocator_traits@V?$allocator@U_Container_proxy@std@@@std@@@std@@SAXAAV?$allocator@U_Container_proxy@std@@@2@QAU_Container_proxy@2@I@Z ; std::_Default_allocator_traits<std::allocator<std::_Container_proxy> >::deallocate
	add	esp, 12					; 0000000cH

; 1104 :     } else {
; 1105 :         using _Ptr_traits = pointer_traits<_Alloc_ptr_t<_Alloc>>;
; 1106 :         _Alloc_traits::deallocate(_Al, _Ptr_traits::pointer_to(*_Ptr), 1);
; 1107 :     }
; 1108 : }

	mov	ecx, DWORD PTR __$EHRec$[ebp]
	mov	DWORD PTR fs:0, ecx
	pop	ecx
	add	esp, 12					; 0000000cH
	cmp	ebp, esp
	call	__RTC_CheckEsp
	mov	esp, ebp
	pop	ebp
	ret	0
	int	3
	int	3
	int	3
	int	3
	int	3
_TEXT	ENDS
;	COMDAT text$x
text$x	SEGMENT
__ehhandler$??$_Deallocate_plain@V?$allocator@U_Container_proxy@std@@@std@@@std@@YAXAAV?$allocator@U_Container_proxy@std@@@0@QAU_Container_proxy@0@@Z:
	npad	1
	npad	1
	mov	edx, DWORD PTR [esp+8]
	lea	eax, DWORD PTR [edx+12]
	mov	ecx, DWORD PTR [edx-4]
	xor	ecx, eax
	call	@__security_check_cookie@4
	mov	eax, OFFSET __ehfuncinfo$??$_Deallocate_plain@V?$allocator@U_Container_proxy@std@@@std@@@std@@YAXAAV?$allocator@U_Container_proxy@std@@@0@QAU_Container_proxy@0@@Z
	jmp	___CxxFrameHandler3
text$x	ENDS
??$_Deallocate_plain@V?$allocator@U_Container_proxy@std@@@std@@@std@@YAXAAV?$allocator@U_Container_proxy@std@@@0@QAU_Container_proxy@0@@Z ENDP ; std::_Deallocate_plain<std::allocator<std::_Container_proxy> >
; Function compile flags: /Odtp /RTCsu
; File C:\Program Files\Microsoft Visual Studio\2022\Community\VC\Tools\MSVC\14.42.34433\include\vector
;	COMDAT ??$_Emplace_reallocate@PAVFuzzyTerm@@@?$vector@PAVFuzzyTerm@@V?$allocator@PAVFuzzyTerm@@@std@@@std@@AAEPAPAVFuzzyTerm@@QAPAV2@$$QAPAV2@@Z
_TEXT	SEGMENT
__Constructed_first$ = -72				; size = 4
__Constructed_last$ = -68				; size = 4
__Newvec$ = -64						; size = 4
__Newcapacity$ = -56					; size = 4
__Newsize$ = -48					; size = 4
__Oldsize$ = -44					; size = 4
__Whereoff$ = -40					; size = 4
__Mylast$ = -36						; size = 4
__Myfirst$ = -32					; size = 4
__My_data$ = -28					; size = 4
__Al$ = -24						; size = 4
_this$ = -20						; size = 4
__$EHRec$ = -16						; size = 16
__Whereptr$ = 8						; size = 4
_<_Val_0>$ = 12						; size = 4
??$_Emplace_reallocate@PAVFuzzyTerm@@@?$vector@PAVFuzzyTerm@@V?$allocator@PAVFuzzyTerm@@@std@@@std@@AAEPAPAVFuzzyTerm@@QAPAV2@$$QAPAV2@@Z PROC ; std::vector<FuzzyTerm *,std::allocator<FuzzyTerm *> >::_Emplace_reallocate<FuzzyTerm *>, COMDAT
; _this$ = ecx

; 806  :     _CONSTEXPR20 pointer _Emplace_reallocate(const pointer _Whereptr, _Valty&&... _Val) {

	push	ebp
	mov	ebp, esp
	push	-1
	push	__ehhandler$??$_Emplace_reallocate@PAVFuzzyTerm@@@?$vector@PAVFuzzyTerm@@V?$allocator@PAVFuzzyTerm@@@std@@@std@@AAEPAPAVFuzzyTerm@@QAPAV2@$$QAPAV2@@Z
	mov	eax, DWORD PTR fs:0
	push	eax
	push	ecx
	sub	esp, 56					; 00000038H
	push	ebx
	push	esi
	push	edi
	push	ecx
	lea	edi, DWORD PTR [ebp-72]
	mov	ecx, 14					; 0000000eH
	mov	eax, -858993460				; ccccccccH
	rep stosd
	pop	ecx
	mov	eax, DWORD PTR ___security_cookie
	xor	eax, ebp
	push	eax
	lea	eax, DWORD PTR __$EHRec$[ebp+4]
	mov	DWORD PTR fs:0, eax
	mov	DWORD PTR __$EHRec$[ebp], esp
	mov	DWORD PTR _this$[ebp], ecx

; 807  :         // reallocate and insert by perfectly forwarding _Val at _Whereptr
; 808  :         _Alty& _Al        = _Getal();

	mov	ecx, DWORD PTR _this$[ebp]
	call	?_Getal@?$vector@PAVFuzzyTerm@@V?$allocator@PAVFuzzyTerm@@@std@@@std@@AAEAAV?$allocator@PAVFuzzyTerm@@@2@XZ ; std::vector<FuzzyTerm *,std::allocator<FuzzyTerm *> >::_Getal
	mov	DWORD PTR __Al$[ebp], eax

; 809  :         auto& _My_data    = _Mypair._Myval2;

	mov	eax, DWORD PTR _this$[ebp]
	mov	DWORD PTR __My_data$[ebp], eax

; 810  :         pointer& _Myfirst = _My_data._Myfirst;

	mov	ecx, DWORD PTR __My_data$[ebp]
	add	ecx, 4
	mov	DWORD PTR __Myfirst$[ebp], ecx

; 811  :         pointer& _Mylast  = _My_data._Mylast;

	mov	edx, DWORD PTR __My_data$[ebp]
	add	edx, 8
	mov	DWORD PTR __Mylast$[ebp], edx

; 812  : 
; 813  :         _STL_INTERNAL_CHECK(_Mylast == _My_data._Myend); // check that we have no unused capacity
; 814  : 
; 815  :         const auto _Whereoff = static_cast<size_type>(_Whereptr - _Myfirst);

	mov	eax, DWORD PTR __Myfirst$[ebp]
	mov	ecx, DWORD PTR __Whereptr$[ebp]
	sub	ecx, DWORD PTR [eax]
	sar	ecx, 2
	mov	DWORD PTR __Whereoff$[ebp], ecx

; 816  :         const auto _Oldsize  = static_cast<size_type>(_Mylast - _Myfirst);

	mov	edx, DWORD PTR __Mylast$[ebp]
	mov	eax, DWORD PTR __Myfirst$[ebp]
	mov	ecx, DWORD PTR [edx]
	sub	ecx, DWORD PTR [eax]
	sar	ecx, 2
	mov	DWORD PTR __Oldsize$[ebp], ecx

; 817  : 
; 818  :         if (_Oldsize == max_size()) {

	mov	ecx, DWORD PTR _this$[ebp]
	call	?max_size@?$vector@PAVFuzzyTerm@@V?$allocator@PAVFuzzyTerm@@@std@@@std@@QBEIXZ ; std::vector<FuzzyTerm *,std::allocator<FuzzyTerm *> >::max_size
	cmp	DWORD PTR __Oldsize$[ebp], eax
	jne	SHORT $LN2@Emplace_re

; 819  :             _Xlength();

	call	?_Xlength@?$vector@PAVFuzzyTerm@@V?$allocator@PAVFuzzyTerm@@@std@@@std@@CAXXZ ; std::vector<FuzzyTerm *,std::allocator<FuzzyTerm *> >::_Xlength
	npad	1
$LN2@Emplace_re:

; 820  :         }
; 821  : 
; 822  :         const size_type _Newsize = _Oldsize + 1;

	mov	edx, DWORD PTR __Oldsize$[ebp]
	add	edx, 1
	mov	DWORD PTR __Newsize$[ebp], edx

; 823  :         size_type _Newcapacity   = _Calculate_growth(_Newsize);

	mov	eax, DWORD PTR __Newsize$[ebp]
	push	eax
	mov	ecx, DWORD PTR _this$[ebp]
	call	?_Calculate_growth@?$vector@PAVFuzzyTerm@@V?$allocator@PAVFuzzyTerm@@@std@@@std@@ABEII@Z ; std::vector<FuzzyTerm *,std::allocator<FuzzyTerm *> >::_Calculate_growth
	mov	DWORD PTR __Newcapacity$[ebp], eax

; 824  : 
; 825  :         const pointer _Newvec           = _STD _Allocate_at_least_helper(_Al, _Newcapacity);

	lea	ecx, DWORD PTR __Newcapacity$[ebp]
	push	ecx
	mov	edx, DWORD PTR __Al$[ebp]
	push	edx
	call	??$_Allocate_at_least_helper@V?$allocator@PAVFuzzyTerm@@@std@@@std@@YAPAPAVFuzzyTerm@@AAV?$allocator@PAVFuzzyTerm@@@0@AAI@Z ; std::_Allocate_at_least_helper<std::allocator<FuzzyTerm *> >
	add	esp, 8
	mov	DWORD PTR __Newvec$[ebp], eax

; 826  :         const pointer _Constructed_last = _Newvec + _Whereoff + 1;

	mov	eax, DWORD PTR __Whereoff$[ebp]
	mov	ecx, DWORD PTR __Newvec$[ebp]
	lea	edx, DWORD PTR [ecx+eax*4+4]
	mov	DWORD PTR __Constructed_last$[ebp], edx

; 827  :         pointer _Constructed_first      = _Constructed_last;

	mov	eax, DWORD PTR __Constructed_last$[ebp]
	mov	DWORD PTR __Constructed_first$[ebp], eax

; 828  : 
; 829  :         _TRY_BEGIN

	mov	DWORD PTR __$EHRec$[ebp+12], 0

; 830  :         _Alty_traits::construct(_Al, _STD _Unfancy(_Newvec + _Whereoff), _STD forward<_Valty>(_Val)...);

	mov	ecx, DWORD PTR _<_Val_0>$[ebp]
	push	ecx
	call	??$forward@PAVFuzzyTerm@@@std@@YA$$QAPAVFuzzyTerm@@AAPAV1@@Z ; std::forward<FuzzyTerm *>
	add	esp, 4
	push	eax
	mov	edx, DWORD PTR __Whereoff$[ebp]
	mov	eax, DWORD PTR __Newvec$[ebp]
	lea	ecx, DWORD PTR [eax+edx*4]
	push	ecx
	call	??$_Unfancy@PAVFuzzyTerm@@@std@@YAPAPAVFuzzyTerm@@PAPAV1@@Z ; std::_Unfancy<FuzzyTerm *>
	add	esp, 4
	push	eax
	mov	edx, DWORD PTR __Al$[ebp]
	push	edx
	call	??$construct@PAVFuzzyTerm@@PAV1@@?$_Default_allocator_traits@V?$allocator@PAVFuzzyTerm@@@std@@@std@@SAXAAV?$allocator@PAVFuzzyTerm@@@1@QAPAVFuzzyTerm@@$$QAPAV3@@Z ; std::_Default_allocator_traits<std::allocator<FuzzyTerm *> >::construct<FuzzyTerm *,FuzzyTerm *>
	add	esp, 12					; 0000000cH

; 831  :         _Constructed_first = _Newvec + _Whereoff;

	mov	eax, DWORD PTR __Whereoff$[ebp]
	mov	ecx, DWORD PTR __Newvec$[ebp]
	lea	edx, DWORD PTR [ecx+eax*4]
	mov	DWORD PTR __Constructed_first$[ebp], edx

; 832  : 
; 833  :         if (_Whereptr == _Mylast) { // at back, provide strong guarantee

	mov	eax, DWORD PTR __Mylast$[ebp]
	mov	ecx, DWORD PTR __Whereptr$[ebp]
	cmp	ecx, DWORD PTR [eax]
	jne	SHORT $LN4@Emplace_re

; 834  :             if constexpr (is_nothrow_move_constructible_v<_Ty> || !is_copy_constructible_v<_Ty>) {
; 835  :                 _STD _Uninitialized_move(_Myfirst, _Mylast, _Newvec, _Al);

	mov	edx, DWORD PTR __Al$[ebp]
	push	edx
	mov	eax, DWORD PTR __Newvec$[ebp]
	push	eax
	mov	ecx, DWORD PTR __Mylast$[ebp]
	mov	edx, DWORD PTR [ecx]
	push	edx
	mov	eax, DWORD PTR __Myfirst$[ebp]
	mov	ecx, DWORD PTR [eax]
	push	ecx
	call	??$_Uninitialized_move@PAPAVFuzzyTerm@@V?$allocator@PAVFuzzyTerm@@@std@@@std@@YAPAPAVFuzzyTerm@@QAPAV1@0PAPAV1@AAV?$allocator@PAVFuzzyTerm@@@0@@Z ; std::_Uninitialized_move<FuzzyTerm * *,std::allocator<FuzzyTerm *> >
	add	esp, 16					; 00000010H

; 836  :             } else {
; 837  :                 _STD _Uninitialized_copy(_Myfirst, _Mylast, _Newvec, _Al);
; 838  :             }
; 839  :         } else { // provide basic guarantee

	jmp	SHORT $LN5@Emplace_re
$LN4@Emplace_re:

; 840  :             _STD _Uninitialized_move(_Myfirst, _Whereptr, _Newvec, _Al);

	mov	edx, DWORD PTR __Al$[ebp]
	push	edx
	mov	eax, DWORD PTR __Newvec$[ebp]
	push	eax
	mov	ecx, DWORD PTR __Whereptr$[ebp]
	push	ecx
	mov	edx, DWORD PTR __Myfirst$[ebp]
	mov	eax, DWORD PTR [edx]
	push	eax
	call	??$_Uninitialized_move@PAPAVFuzzyTerm@@V?$allocator@PAVFuzzyTerm@@@std@@@std@@YAPAPAVFuzzyTerm@@QAPAV1@0PAPAV1@AAV?$allocator@PAVFuzzyTerm@@@0@@Z ; std::_Uninitialized_move<FuzzyTerm * *,std::allocator<FuzzyTerm *> >
	add	esp, 16					; 00000010H

; 841  :             _Constructed_first = _Newvec;

	mov	ecx, DWORD PTR __Newvec$[ebp]
	mov	DWORD PTR __Constructed_first$[ebp], ecx

; 842  :             _STD _Uninitialized_move(_Whereptr, _Mylast, _Newvec + _Whereoff + 1, _Al);

	mov	edx, DWORD PTR __Al$[ebp]
	push	edx
	mov	eax, DWORD PTR __Whereoff$[ebp]
	mov	ecx, DWORD PTR __Newvec$[ebp]
	lea	edx, DWORD PTR [ecx+eax*4+4]
	push	edx
	mov	eax, DWORD PTR __Mylast$[ebp]
	mov	ecx, DWORD PTR [eax]
	push	ecx
	mov	edx, DWORD PTR __Whereptr$[ebp]
	push	edx
	call	??$_Uninitialized_move@PAPAVFuzzyTerm@@V?$allocator@PAVFuzzyTerm@@@std@@@std@@YAPAPAVFuzzyTerm@@QAPAV1@0PAPAV1@AAV?$allocator@PAVFuzzyTerm@@@0@@Z ; std::_Uninitialized_move<FuzzyTerm * *,std::allocator<FuzzyTerm *> >
	add	esp, 16					; 00000010H
$LN5@Emplace_re:
	jmp	SHORT $LN7@Emplace_re
__catch$??$_Emplace_reallocate@PAVFuzzyTerm@@@?$vector@PAVFuzzyTerm@@V?$allocator@PAVFuzzyTerm@@@std@@@std@@AAEPAPAVFuzzyTerm@@QAPAV2@$$QAPAV2@@Z$0:

; 843  :         }
; 844  :         _CATCH_ALL
; 845  :         _STD _Destroy_range(_Constructed_first, _Constructed_last, _Al);

	mov	eax, DWORD PTR __Al$[ebp]
	push	eax
	mov	ecx, DWORD PTR __Constructed_last$[ebp]
	push	ecx
	mov	edx, DWORD PTR __Constructed_first$[ebp]
	push	edx
	call	??$_Destroy_range@V?$allocator@PAVFuzzyTerm@@@std@@@std@@YAXPAPAVFuzzyTerm@@QAPAV1@AAV?$allocator@PAVFuzzyTerm@@@0@@Z ; std::_Destroy_range<std::allocator<FuzzyTerm *> >
	add	esp, 12					; 0000000cH

; 846  :         _Al.deallocate(_Newvec, _Newcapacity);

	mov	eax, DWORD PTR __Newcapacity$[ebp]
	push	eax
	mov	ecx, DWORD PTR __Newvec$[ebp]
	push	ecx
	mov	ecx, DWORD PTR __Al$[ebp]
	call	?deallocate@?$allocator@PAVFuzzyTerm@@@std@@QAEXQAPAVFuzzyTerm@@I@Z ; std::allocator<FuzzyTerm *>::deallocate

; 847  :         _RERAISE;

	push	0
	push	0
	call	__CxxThrowException@8
	npad	1

; 848  :         _CATCH_END

	mov	eax, $LN10@Emplace_re
	ret	0
$LN7@Emplace_re:
	mov	DWORD PTR __$EHRec$[ebp+12], -1
	jmp	SHORT $LN9@Emplace_re
$LN10@Emplace_re:
	mov	DWORD PTR __$EHRec$[ebp+12], -1
$LN9@Emplace_re:

; 849  : 
; 850  :         _Change_array(_Newvec, _Newsize, _Newcapacity);

	mov	edx, DWORD PTR __Newcapacity$[ebp]
	push	edx
	mov	eax, DWORD PTR __Newsize$[ebp]
	push	eax
	mov	ecx, DWORD PTR __Newvec$[ebp]
	push	ecx
	mov	ecx, DWORD PTR _this$[ebp]
	call	?_Change_array@?$vector@PAVFuzzyTerm@@V?$allocator@PAVFuzzyTerm@@@std@@@std@@AAEXQAPAVFuzzyTerm@@II@Z ; std::vector<FuzzyTerm *,std::allocator<FuzzyTerm *> >::_Change_array

; 851  :         return _Newvec + _Whereoff;

	mov	edx, DWORD PTR __Whereoff$[ebp]
	mov	eax, DWORD PTR __Newvec$[ebp]
	lea	eax, DWORD PTR [eax+edx*4]
$LN1@Emplace_re:

; 852  :     }

	push	edx
	mov	ecx, ebp
	push	eax
	lea	edx, DWORD PTR $LN14@Emplace_re
	call	@_RTC_CheckStackVars@8
	pop	eax
	pop	edx
	mov	ecx, DWORD PTR __$EHRec$[ebp+4]
	mov	DWORD PTR fs:0, ecx
	pop	ecx
	pop	edi
	pop	esi
	pop	ebx
	add	esp, 72					; 00000048H
	cmp	ebp, esp
	call	__RTC_CheckEsp
	mov	esp, ebp
	pop	ebp
	ret	8
$LN14@Emplace_re:
	DD	1
	DD	$LN13@Emplace_re
$LN13@Emplace_re:
	DD	-56					; ffffffc8H
	DD	4
	DD	$LN11@Emplace_re
$LN11@Emplace_re:
	DB	95					; 0000005fH
	DB	78					; 0000004eH
	DB	101					; 00000065H
	DB	119					; 00000077H
	DB	99					; 00000063H
	DB	97					; 00000061H
	DB	112					; 00000070H
	DB	97					; 00000061H
	DB	99					; 00000063H
	DB	105					; 00000069H
	DB	116					; 00000074H
	DB	121					; 00000079H
	DB	0
	int	3
	int	3
	int	3
	int	3
	int	3
_TEXT	ENDS
;	COMDAT text$x
text$x	SEGMENT
__ehhandler$??$_Emplace_reallocate@PAVFuzzyTerm@@@?$vector@PAVFuzzyTerm@@V?$allocator@PAVFuzzyTerm@@@std@@@std@@AAEPAPAVFuzzyTerm@@QAPAV2@$$QAPAV2@@Z:
	npad	1
	npad	1
	mov	edx, DWORD PTR [esp+8]
	lea	eax, DWORD PTR [edx+12]
	mov	ecx, DWORD PTR [edx-76]
	xor	ecx, eax
	call	@__security_check_cookie@4
	mov	eax, OFFSET __ehfuncinfo$??$_Emplace_reallocate@PAVFuzzyTerm@@@?$vector@PAVFuzzyTerm@@V?$allocator@PAVFuzzyTerm@@@std@@@std@@AAEPAPAVFuzzyTerm@@QAPAV2@$$QAPAV2@@Z
	jmp	___CxxFrameHandler3
text$x	ENDS
??$_Emplace_reallocate@PAVFuzzyTerm@@@?$vector@PAVFuzzyTerm@@V?$allocator@PAVFuzzyTerm@@@std@@@std@@AAEPAPAVFuzzyTerm@@QAPAV2@$$QAPAV2@@Z ENDP ; std::vector<FuzzyTerm *,std::allocator<FuzzyTerm *> >::_Emplace_reallocate<FuzzyTerm *>
; Function compile flags: /Odtp /RTCsu
; File C:\Program Files\Microsoft Visual Studio\2022\Community\VC\Tools\MSVC\14.42.34433\include\vector
;	COMDAT ??$_Emplace_back_with_unused_capacity@PAVFuzzyTerm@@@?$vector@PAVFuzzyTerm@@V?$allocator@PAVFuzzyTerm@@@std@@@std@@AAEAAPAVFuzzyTerm@@$$QAPAV2@@Z
_TEXT	SEGMENT
__Result$ = -16						; size = 4
__Mylast$ = -12						; size = 4
__My_data$ = -8						; size = 4
_this$ = -4						; size = 4
_<_Val_0>$ = 8						; size = 4
??$_Emplace_back_with_unused_capacity@PAVFuzzyTerm@@@?$vector@PAVFuzzyTerm@@V?$allocator@PAVFuzzyTerm@@@std@@@std@@AAEAAPAVFuzzyTerm@@$$QAPAV2@@Z PROC ; std::vector<FuzzyTerm *,std::allocator<FuzzyTerm *> >::_Emplace_back_with_unused_capacity<FuzzyTerm *>, COMDAT
; _this$ = ecx

; 783  :     _CONSTEXPR20 _Ty& _Emplace_back_with_unused_capacity(_Valty&&... _Val) {

	push	ebp
	mov	ebp, esp
	sub	esp, 16					; 00000010H
	mov	eax, -858993460				; ccccccccH
	mov	DWORD PTR [ebp-16], eax
	mov	DWORD PTR [ebp-12], eax
	mov	DWORD PTR [ebp-8], eax
	mov	DWORD PTR [ebp-4], eax
	mov	DWORD PTR _this$[ebp], ecx

; 784  :         // insert by perfectly forwarding into element at end, provide strong guarantee
; 785  :         auto& _My_data   = _Mypair._Myval2;

	mov	eax, DWORD PTR _this$[ebp]
	mov	DWORD PTR __My_data$[ebp], eax

; 786  :         pointer& _Mylast = _My_data._Mylast;

	mov	ecx, DWORD PTR __My_data$[ebp]
	add	ecx, 8
	mov	DWORD PTR __Mylast$[ebp], ecx

; 787  :         _STL_INTERNAL_CHECK(_Mylast != _My_data._Myend); // check that we have unused capacity
; 788  :         if constexpr (conjunction_v<is_nothrow_constructible<_Ty, _Valty...>,
; 789  :                           _Uses_default_construct<_Alloc, _Ty*, _Valty...>>) {
; 790  :             _ASAN_VECTOR_MODIFY(1);
; 791  :             _STD _Construct_in_place(*_Mylast, _STD forward<_Valty>(_Val)...);

	mov	edx, DWORD PTR _<_Val_0>$[ebp]
	push	edx
	call	??$forward@PAVFuzzyTerm@@@std@@YA$$QAPAVFuzzyTerm@@AAPAV1@@Z ; std::forward<FuzzyTerm *>
	add	esp, 4
	push	eax
	mov	eax, DWORD PTR __Mylast$[ebp]
	mov	ecx, DWORD PTR [eax]
	push	ecx
	call	??$_Construct_in_place@PAVFuzzyTerm@@PAV1@@std@@YAXAAPAVFuzzyTerm@@$$QAPAV1@@Z ; std::_Construct_in_place<FuzzyTerm *,FuzzyTerm *>
	add	esp, 8

; 792  :         } else {
; 793  :             _ASAN_VECTOR_EXTEND_GUARD(static_cast<size_type>(_Mylast - _My_data._Myfirst) + 1);
; 794  :             _Alty_traits::construct(_Getal(), _Unfancy(_Mylast), _STD forward<_Valty>(_Val)...);
; 795  :             _ASAN_VECTOR_RELEASE_GUARD;
; 796  :         }
; 797  : 
; 798  :         _Orphan_range(_Mylast, _Mylast);

	mov	edx, DWORD PTR __Mylast$[ebp]
	mov	eax, DWORD PTR [edx]
	push	eax
	mov	ecx, DWORD PTR __Mylast$[ebp]
	mov	edx, DWORD PTR [ecx]
	push	edx
	mov	ecx, DWORD PTR _this$[ebp]
	call	?_Orphan_range@?$vector@PAVFuzzyTerm@@V?$allocator@PAVFuzzyTerm@@@std@@@std@@ABEXPAPAVFuzzyTerm@@0@Z ; std::vector<FuzzyTerm *,std::allocator<FuzzyTerm *> >::_Orphan_range

; 799  :         _Ty& _Result = *_Mylast;

	mov	eax, DWORD PTR __Mylast$[ebp]
	mov	ecx, DWORD PTR [eax]
	mov	DWORD PTR __Result$[ebp], ecx

; 800  :         ++_Mylast;

	mov	edx, DWORD PTR __Mylast$[ebp]
	mov	eax, DWORD PTR [edx]
	add	eax, 4
	mov	ecx, DWORD PTR __Mylast$[ebp]
	mov	DWORD PTR [ecx], eax

; 801  : 
; 802  :         return _Result;

	mov	eax, DWORD PTR __Result$[ebp]

; 803  :     }

	add	esp, 16					; 00000010H
	cmp	ebp, esp
	call	__RTC_CheckEsp
	mov	esp, ebp
	pop	ebp
	ret	4
??$_Emplace_back_with_unused_capacity@PAVFuzzyTerm@@@?$vector@PAVFuzzyTerm@@V?$allocator@PAVFuzzyTerm@@@std@@@std@@AAEAAPAVFuzzyTerm@@$$QAPAV2@@Z ENDP ; std::vector<FuzzyTerm *,std::allocator<FuzzyTerm *> >::_Emplace_back_with_unused_capacity<FuzzyTerm *>
_TEXT	ENDS
; Function compile flags: /Odtp /RTCsu
; File C:\Program Files\Microsoft Visual Studio\2022\Community\VC\Tools\MSVC\14.42.34433\include\type_traits
;	COMDAT ??$forward@PAVFuzzyTerm@@@std@@YA$$QAPAVFuzzyTerm@@AAPAV1@@Z
_TEXT	SEGMENT
__Arg$ = 8						; size = 4
??$forward@PAVFuzzyTerm@@@std@@YA$$QAPAVFuzzyTerm@@AAPAV1@@Z PROC ; std::forward<FuzzyTerm *>, COMDAT

; 1526 : _NODISCARD _MSVC_INTRINSIC constexpr _Ty&& forward(remove_reference_t<_Ty>& _Arg) noexcept {

	push	ebp
	mov	ebp, esp

; 1527 :     return static_cast<_Ty&&>(_Arg);

	mov	eax, DWORD PTR __Arg$[ebp]

; 1528 : }

	pop	ebp
	ret	0
??$forward@PAVFuzzyTerm@@@std@@YA$$QAPAVFuzzyTerm@@AAPAV1@@Z ENDP ; std::forward<FuzzyTerm *>
_TEXT	ENDS
; Function compile flags: /Odtp /RTCsu
; File C:\Program Files\Microsoft Visual Studio\2022\Community\VC\Tools\MSVC\14.42.34433\include\utility
;	COMDAT ??$min@I@std@@YAABIABI0@Z
_TEXT	SEGMENT
tv65 = -8						; size = 4
$T1 = -4						; size = 4
__Left$ = 8						; size = 4
__Right$ = 12						; size = 4
??$min@I@std@@YAABIABI0@Z PROC				; std::min<unsigned int>, COMDAT

; 99   :         noexcept(_Right < _Left)) /* strengthened */ {

	push	ebp
	mov	ebp, esp
	sub	esp, 8

; 100  :     // return smaller of _Left and _Right
; 101  :     return _Right < _Left ? _Right : _Left;

	mov	eax, DWORD PTR __Right$[ebp]
	mov	ecx, DWORD PTR __Left$[ebp]
	mov	edx, DWORD PTR [eax]
	cmp	edx, DWORD PTR [ecx]
	jae	SHORT $LN3@min
	mov	eax, DWORD PTR __Right$[ebp]
	mov	DWORD PTR tv65[ebp], eax
	jmp	SHORT $LN4@min
$LN3@min:
	mov	ecx, DWORD PTR __Left$[ebp]
	mov	DWORD PTR tv65[ebp], ecx
$LN4@min:
	mov	edx, DWORD PTR tv65[ebp]
	mov	DWORD PTR $T1[ebp], edx
	mov	eax, DWORD PTR $T1[ebp]

; 102  : }

	mov	esp, ebp
	pop	ebp
	ret	0
??$min@I@std@@YAABIABI0@Z ENDP				; std::min<unsigned int>
_TEXT	ENDS
; Function compile flags: /Odtp /RTCsu
; File C:\Program Files\Microsoft Visual Studio\2022\Community\VC\Tools\MSVC\14.42.34433\include\xmemory
;	COMDAT ??$_Deallocate@$07@std@@YAXPAXI@Z
_TEXT	SEGMENT
__$EHRec$ = -12						; size = 12
__Ptr$ = 8						; size = 4
__Bytes$ = 12						; size = 4
??$_Deallocate@$07@std@@YAXPAXI@Z PROC			; std::_Deallocate<8>, COMDAT

; 230  : _CONSTEXPR20 void _Deallocate(void* _Ptr, size_t _Bytes) noexcept {

	push	ebp
	mov	ebp, esp
	push	-1
	push	__ehhandler$??$_Deallocate@$07@std@@YAXPAXI@Z
	mov	eax, DWORD PTR fs:0
	push	eax
	mov	eax, DWORD PTR ___security_cookie
	xor	eax, ebp
	push	eax
	lea	eax, DWORD PTR __$EHRec$[ebp]
	mov	DWORD PTR fs:0, eax

; 231  :     // deallocate storage allocated by _Allocate
; 232  : #if _HAS_CXX20 // TRANSITION, GH-1532
; 233  :     if (_STD is_constant_evaluated()) {
; 234  :         ::operator delete(_Ptr);
; 235  :         return;
; 236  :     }
; 237  : #endif // _HAS_CXX20
; 238  : 
; 239  : #ifdef __cpp_aligned_new
; 240  :     if constexpr (_Align > __STDCPP_DEFAULT_NEW_ALIGNMENT__) {
; 241  :         size_t _Passed_align = _Align;
; 242  : #if defined(_M_IX86) || defined(_M_X64)
; 243  :         if (_Bytes >= _Big_allocation_threshold) {
; 244  :             // boost the alignment of big allocations to help autovectorization
; 245  :             _Passed_align = (_STD max)(_Align, _Big_allocation_alignment);
; 246  :         }
; 247  : #endif // defined(_M_IX86) || defined(_M_X64)
; 248  :         ::operator delete(_Ptr, _Bytes, align_val_t{_Passed_align});
; 249  :     } else
; 250  : #endif // defined(__cpp_aligned_new)
; 251  :     {
; 252  : #if defined(_M_IX86) || defined(_M_X64)
; 253  :         if (_Bytes >= _Big_allocation_threshold) {

	cmp	DWORD PTR __Bytes$[ebp], 4096		; 00001000H
	jb	SHORT $LN2@Deallocate

; 254  :             // boost the alignment of big allocations to help autovectorization
; 255  :             _Adjust_manually_vector_aligned(_Ptr, _Bytes);

	lea	eax, DWORD PTR __Bytes$[ebp]
	push	eax
	lea	ecx, DWORD PTR __Ptr$[ebp]
	push	ecx
	call	?_Adjust_manually_vector_aligned@std@@YAXAAPAXAAI@Z ; std::_Adjust_manually_vector_aligned
	add	esp, 8
$LN2@Deallocate:

; 256  :         }
; 257  : #endif // defined(_M_IX86) || defined(_M_X64)
; 258  :         ::operator delete(_Ptr, _Bytes);

	mov	edx, DWORD PTR __Bytes$[ebp]
	push	edx
	mov	eax, DWORD PTR __Ptr$[ebp]
	push	eax
	call	??3@YAXPAXI@Z				; operator delete
	add	esp, 8

; 259  :     }
; 260  : }

	mov	ecx, DWORD PTR __$EHRec$[ebp]
	mov	DWORD PTR fs:0, ecx
	pop	ecx
	add	esp, 12					; 0000000cH
	cmp	ebp, esp
	call	__RTC_CheckEsp
	mov	esp, ebp
	pop	ebp
	ret	0
	int	3
	int	3
	int	3
	int	3
	int	3
_TEXT	ENDS
;	COMDAT text$x
text$x	SEGMENT
__ehhandler$??$_Deallocate@$07@std@@YAXPAXI@Z:
	npad	1
	npad	1
	mov	edx, DWORD PTR [esp+8]
	lea	eax, DWORD PTR [edx+12]
	mov	ecx, DWORD PTR [edx-4]
	xor	ecx, eax
	call	@__security_check_cookie@4
	mov	eax, OFFSET __ehfuncinfo$??$_Deallocate@$07@std@@YAXPAXI@Z
	jmp	___CxxFrameHandler3
text$x	ENDS
??$_Deallocate@$07@std@@YAXPAXI@Z ENDP			; std::_Deallocate<8>
; Function compile flags: /Odtp /RTCsu
; File C:\Program Files\Microsoft Visual Studio\2022\Community\VC\Tools\MSVC\14.42.34433\include\xmemory
;	COMDAT ??$_Destroy_range@V?$allocator@PAVFuzzyTerm@@@std@@@std@@YAXPAPAVFuzzyTerm@@QAPAV1@AAV?$allocator@PAVFuzzyTerm@@@0@@Z
_TEXT	SEGMENT
__First$ = 8						; size = 4
__Last$ = 12						; size = 4
__Al$ = 16						; size = 4
??$_Destroy_range@V?$allocator@PAVFuzzyTerm@@@std@@@std@@YAXPAPAVFuzzyTerm@@QAPAV1@AAV?$allocator@PAVFuzzyTerm@@@0@@Z PROC ; std::_Destroy_range<std::allocator<FuzzyTerm *> >, COMDAT

; 1062 : _CONSTEXPR20 void _Destroy_range(_Alloc_ptr_t<_Alloc> _First, const _Alloc_ptr_t<_Alloc> _Last, _Alloc& _Al) noexcept {

	push	ebp
	mov	ebp, esp

; 1063 :     // note that this is an optimization for debug mode codegen; in release mode the BE removes all of this
; 1064 :     using _Ty = typename _Alloc::value_type;
; 1065 :     if constexpr (!conjunction_v<is_trivially_destructible<_Ty>, _Uses_default_destroy<_Alloc, _Ty*>>) {
; 1066 :         for (; _First != _Last; ++_First) {
; 1067 :             allocator_traits<_Alloc>::destroy(_Al, _STD _Unfancy(_First));
; 1068 :         }
; 1069 :     }
; 1070 : }

	pop	ebp
	ret	0
??$_Destroy_range@V?$allocator@PAVFuzzyTerm@@@std@@@std@@YAXPAPAVFuzzyTerm@@QAPAV1@AAV?$allocator@PAVFuzzyTerm@@@0@@Z ENDP ; std::_Destroy_range<std::allocator<FuzzyTerm *> >
_TEXT	ENDS
; Function compile flags: /Odtp /RTCsu
; File C:\Program Files\Microsoft Visual Studio\2022\Community\VC\Tools\MSVC\14.42.34433\include\xmemory
;	COMDAT ??$_Alloc_proxy@V?$allocator@U_Container_proxy@std@@@std@@@_Container_base12@std@@QAEX$$QAV?$allocator@U_Container_proxy@std@@@1@@Z
_TEXT	SEGMENT
$T1 = -12						; size = 4
__New_proxy$ = -8					; size = 4
_this$ = -4						; size = 4
__Al$ = 8						; size = 4
??$_Alloc_proxy@V?$allocator@U_Container_proxy@std@@@std@@@_Container_base12@std@@QAEX$$QAV?$allocator@U_Container_proxy@std@@@1@@Z PROC ; std::_Container_base12::_Alloc_proxy<std::allocator<std::_Container_proxy> >, COMDAT
; _this$ = ecx

; 1183 :     _CONSTEXPR20 void _Alloc_proxy(_Alloc&& _Al) {

	push	ebp
	mov	ebp, esp
	sub	esp, 12					; 0000000cH
	mov	DWORD PTR [ebp-12], -858993460		; ccccccccH
	mov	DWORD PTR [ebp-8], -858993460		; ccccccccH
	mov	DWORD PTR [ebp-4], -858993460		; ccccccccH
	mov	DWORD PTR _this$[ebp], ecx

; 1184 :         _Container_proxy* const _New_proxy = _Unfancy(_Al.allocate(1));

	push	1
	mov	ecx, DWORD PTR __Al$[ebp]
	call	?allocate@?$allocator@U_Container_proxy@std@@@std@@QAEPAU_Container_proxy@2@I@Z ; std::allocator<std::_Container_proxy>::allocate
	push	eax
	call	??$_Unfancy@U_Container_proxy@std@@@std@@YAPAU_Container_proxy@0@PAU10@@Z ; std::_Unfancy<std::_Container_proxy>
	add	esp, 4
	mov	DWORD PTR __New_proxy$[ebp], eax

; 1185 :         _Construct_in_place(*_New_proxy, this);

	mov	eax, DWORD PTR _this$[ebp]
	mov	DWORD PTR $T1[ebp], eax
	lea	ecx, DWORD PTR $T1[ebp]
	push	ecx
	mov	edx, DWORD PTR __New_proxy$[ebp]
	push	edx
	call	??$_Construct_in_place@U_Container_proxy@std@@PAU_Container_base12@2@@std@@YAXAAU_Container_proxy@0@$$QAPAU_Container_base12@0@@Z ; std::_Construct_in_place<std::_Container_proxy,std::_Container_base12 *>
	add	esp, 8

; 1186 :         _Myproxy            = _New_proxy;

	mov	eax, DWORD PTR _this$[ebp]
	mov	ecx, DWORD PTR __New_proxy$[ebp]
	mov	DWORD PTR [eax], ecx

; 1187 :         _New_proxy->_Mycont = this;

	mov	edx, DWORD PTR __New_proxy$[ebp]
	mov	eax, DWORD PTR _this$[ebp]
	mov	DWORD PTR [edx], eax

; 1188 :     }

	add	esp, 12					; 0000000cH
	cmp	ebp, esp
	call	__RTC_CheckEsp
	mov	esp, ebp
	pop	ebp
	ret	4
??$_Alloc_proxy@V?$allocator@U_Container_proxy@std@@@std@@@_Container_base12@std@@QAEX$$QAV?$allocator@U_Container_proxy@std@@@1@@Z ENDP ; std::_Container_base12::_Alloc_proxy<std::allocator<std::_Container_proxy> >
_TEXT	ENDS
; Function compile flags: /Odtp /RTCsu
; File C:\Program Files\Microsoft Visual Studio\2022\Community\VC\Tools\MSVC\14.42.34433\include\xmemory
;	COMDAT ??$?0$$V@?$_Compressed_pair@V?$allocator@PAVFuzzyTerm@@@std@@V?$_Vector_val@U?$_Simple_types@PAVFuzzyTerm@@@std@@@2@$00@std@@QAE@U_Zero_then_variadic_args_t@1@@Z
_TEXT	SEGMENT
_this$ = -4						; size = 4
___formal$ = 8						; size = 1
??$?0$$V@?$_Compressed_pair@V?$allocator@PAVFuzzyTerm@@@std@@V?$_Vector_val@U?$_Simple_types@PAVFuzzyTerm@@@std@@@2@$00@std@@QAE@U_Zero_then_variadic_args_t@1@@Z PROC ; std::_Compressed_pair<std::allocator<FuzzyTerm *>,std::_Vector_val<std::_Simple_types<FuzzyTerm *> >,1>::_Compressed_pair<std::allocator<FuzzyTerm *>,std::_Vector_val<std::_Simple_types<FuzzyTerm *> >,1><>, COMDAT
; _this$ = ecx

; 1495 :         : _Ty1(), _Myval2(_STD forward<_Other2>(_Val2)...) {}

	push	ebp
	mov	ebp, esp
	push	ecx
	mov	DWORD PTR [ebp-4], -858993460		; ccccccccH
	mov	DWORD PTR _this$[ebp], ecx
	mov	ecx, DWORD PTR _this$[ebp]
	call	??0?$allocator@PAVFuzzyTerm@@@std@@QAE@XZ ; std::allocator<FuzzyTerm *>::allocator<FuzzyTerm *>
	mov	ecx, DWORD PTR _this$[ebp]
	call	??0?$_Vector_val@U?$_Simple_types@PAVFuzzyTerm@@@std@@@std@@QAE@XZ ; std::_Vector_val<std::_Simple_types<FuzzyTerm *> >::_Vector_val<std::_Simple_types<FuzzyTerm *> >
	npad	1
	mov	eax, DWORD PTR _this$[ebp]
	add	esp, 4
	cmp	ebp, esp
	call	__RTC_CheckEsp
	mov	esp, ebp
	pop	ebp
	ret	4
??$?0$$V@?$_Compressed_pair@V?$allocator@PAVFuzzyTerm@@@std@@V?$_Vector_val@U?$_Simple_types@PAVFuzzyTerm@@@std@@@2@$00@std@@QAE@U_Zero_then_variadic_args_t@1@@Z ENDP ; std::_Compressed_pair<std::allocator<FuzzyTerm *>,std::_Vector_val<std::_Simple_types<FuzzyTerm *> >,1>::_Compressed_pair<std::allocator<FuzzyTerm *>,std::_Vector_val<std::_Simple_types<FuzzyTerm *> >,1><>
_TEXT	ENDS
; Function compile flags: /Odtp /RTCsu
; File C:\Program Files\Microsoft Visual Studio\2022\Community\VC\Tools\MSVC\14.42.34433\include\xmemory
;	COMDAT ??$_Delete_plain_internal@V?$allocator@U_Container_proxy@std@@@std@@@std@@YAXAAV?$allocator@U_Container_proxy@std@@@0@QAU_Container_proxy@0@@Z
_TEXT	SEGMENT
__Al$ = 8						; size = 4
__Ptr$ = 12						; size = 4
??$_Delete_plain_internal@V?$allocator@U_Container_proxy@std@@@std@@@std@@YAXAAV?$allocator@U_Container_proxy@std@@@0@QAU_Container_proxy@0@@Z PROC ; std::_Delete_plain_internal<std::allocator<std::_Container_proxy> >, COMDAT

; 1111 : _CONSTEXPR20 void _Delete_plain_internal(_Alloc& _Al, typename _Alloc::value_type* const _Ptr) noexcept {

	push	ebp
	mov	ebp, esp

; 1112 :     // destroy *_Ptr in place, then deallocate _Ptr using _Al; used for internal container types the user didn't name
; 1113 :     using _Ty = typename _Alloc::value_type;
; 1114 :     _Ptr->~_Ty();
; 1115 :     _STD _Deallocate_plain(_Al, _Ptr);

	mov	eax, DWORD PTR __Ptr$[ebp]
	push	eax
	mov	ecx, DWORD PTR __Al$[ebp]
	push	ecx
	call	??$_Deallocate_plain@V?$allocator@U_Container_proxy@std@@@std@@@std@@YAXAAV?$allocator@U_Container_proxy@std@@@0@QAU_Container_proxy@0@@Z ; std::_Deallocate_plain<std::allocator<std::_Container_proxy> >
	add	esp, 8

; 1116 : }

	cmp	ebp, esp
	call	__RTC_CheckEsp
	pop	ebp
	ret	0
??$_Delete_plain_internal@V?$allocator@U_Container_proxy@std@@@std@@@std@@YAXAAV?$allocator@U_Container_proxy@std@@@0@QAU_Container_proxy@0@@Z ENDP ; std::_Delete_plain_internal<std::allocator<std::_Container_proxy> >
_TEXT	ENDS
; Function compile flags: /Odtp /RTCsu
; File C:\Program Files\Microsoft Visual Studio\2022\Community\VC\Tools\MSVC\14.42.34433\include\utility
;	COMDAT ??$exchange@PAU_Container_proxy@std@@$$T@std@@YAPAU_Container_proxy@0@AAPAU10@$$QA$$T@Z
_TEXT	SEGMENT
__Old_val$ = -4						; size = 4
__Val$ = 8						; size = 4
__New_val$ = 12						; size = 4
??$exchange@PAU_Container_proxy@std@@$$T@std@@YAPAU_Container_proxy@0@AAPAU10@$$QA$$T@Z PROC ; std::exchange<std::_Container_proxy *,std::nullptr_t>, COMDAT

; 762  :     conjunction_v<is_nothrow_move_constructible<_Ty>, is_nothrow_assignable<_Ty&, _Other>>) {

	push	ebp
	mov	ebp, esp
	push	ecx

; 763  :     // assign _New_val to _Val, return previous _Val
; 764  :     _Ty _Old_val = static_cast<_Ty&&>(_Val);

	mov	eax, DWORD PTR __Val$[ebp]
	mov	ecx, DWORD PTR [eax]
	mov	DWORD PTR __Old_val$[ebp], ecx

; 765  :     _Val         = static_cast<_Other&&>(_New_val);

	mov	edx, DWORD PTR __Val$[ebp]
	mov	eax, DWORD PTR __New_val$[ebp]
	mov	ecx, DWORD PTR [eax]
	mov	DWORD PTR [edx], ecx

; 766  :     return _Old_val;

	mov	eax, DWORD PTR __Old_val$[ebp]

; 767  : }

	mov	esp, ebp
	pop	ebp
	ret	0
??$exchange@PAU_Container_proxy@std@@$$T@std@@YAPAU_Container_proxy@0@AAPAU10@$$QA$$T@Z ENDP ; std::exchange<std::_Container_proxy *,std::nullptr_t>
_TEXT	ENDS
; Function compile flags: /Odtp /RTCsu
; File C:\Program Files\Microsoft Visual Studio\2022\Community\VC\Tools\MSVC\14.42.34433\include\xmemory
;	COMDAT ??$?0PAVFuzzyTerm@@@?$allocator@U_Container_proxy@std@@@std@@QAE@ABV?$allocator@PAVFuzzyTerm@@@1@@Z
_TEXT	SEGMENT
_this$ = -4						; size = 4
___formal$ = 8						; size = 4
??$?0PAVFuzzyTerm@@@?$allocator@U_Container_proxy@std@@@std@@QAE@ABV?$allocator@PAVFuzzyTerm@@@1@@Z PROC ; std::allocator<std::_Container_proxy>::allocator<std::_Container_proxy><FuzzyTerm *>, COMDAT
; _this$ = ecx

; 942  :     constexpr allocator(const allocator<_Other>&) noexcept {}

	push	ebp
	mov	ebp, esp
	push	ecx
	mov	DWORD PTR _this$[ebp], ecx
	mov	eax, DWORD PTR _this$[ebp]
	mov	esp, ebp
	pop	ebp
	ret	4
??$?0PAVFuzzyTerm@@@?$allocator@U_Container_proxy@std@@@std@@QAE@ABV?$allocator@PAVFuzzyTerm@@@1@@Z ENDP ; std::allocator<std::_Container_proxy>::allocator<std::_Container_proxy><FuzzyTerm *>
_TEXT	ENDS
; Function compile flags: /Odtp /RTCsu
; File C:\Program Files\Microsoft Visual Studio\2022\Community\VC\Tools\MSVC\14.42.34433\include\xmemory
;	COMDAT ?allocate@?$allocator@U_Container_proxy@std@@@std@@QAEPAU_Container_proxy@2@I@Z
_TEXT	SEGMENT
_this$ = -4						; size = 4
__Count$ = 8						; size = 4
?allocate@?$allocator@U_Container_proxy@std@@@std@@QAEPAU_Container_proxy@2@I@Z PROC ; std::allocator<std::_Container_proxy>::allocate, COMDAT
; _this$ = ecx

; 952  :     _NODISCARD_RAW_PTR_ALLOC _CONSTEXPR20 __declspec(allocator) _Ty* allocate(_CRT_GUARDOVERFLOW const size_t _Count) {

	push	ebp
	mov	ebp, esp
	push	ecx
	mov	DWORD PTR [ebp-4], -858993460		; ccccccccH
	mov	DWORD PTR _this$[ebp], ecx

; 953  :         static_assert(sizeof(value_type) > 0, "value_type must be complete before calling allocate.");
; 954  :         return static_cast<_Ty*>(_STD _Allocate<_New_alignof<_Ty>>(_Get_size_of_n<sizeof(_Ty)>(_Count)));

	mov	eax, DWORD PTR __Count$[ebp]
	push	eax
	call	??$_Get_size_of_n@$07@std@@YAII@Z	; std::_Get_size_of_n<8>
	add	esp, 4
	push	eax
	call	??$_Allocate@$07U_Default_allocate_traits@std@@@std@@YAPAXI@Z ; std::_Allocate<8,std::_Default_allocate_traits>
	add	esp, 4

; 955  :     }

	add	esp, 4
	cmp	ebp, esp
	call	__RTC_CheckEsp
	mov	esp, ebp
	pop	ebp
	ret	4
?allocate@?$allocator@U_Container_proxy@std@@@std@@QAEPAU_Container_proxy@2@I@Z ENDP ; std::allocator<std::_Container_proxy>::allocate
_TEXT	ENDS
; Function compile flags: /Odtp /RTCsu
; File C:\Program Files\Microsoft Visual Studio\2022\Community\VC\Tools\MSVC\14.42.34433\include\vector
;	COMDAT ??$_Emplace_one_at_back@PAVFuzzyTerm@@@?$vector@PAVFuzzyTerm@@V?$allocator@PAVFuzzyTerm@@@std@@@std@@AAEAAPAVFuzzyTerm@@$$QAPAV2@@Z
_TEXT	SEGMENT
__Mylast$ = -12						; size = 4
__My_data$ = -8						; size = 4
_this$ = -4						; size = 4
_<_Val_0>$ = 8						; size = 4
??$_Emplace_one_at_back@PAVFuzzyTerm@@@?$vector@PAVFuzzyTerm@@V?$allocator@PAVFuzzyTerm@@@std@@@std@@AAEAAPAVFuzzyTerm@@$$QAPAV2@@Z PROC ; std::vector<FuzzyTerm *,std::allocator<FuzzyTerm *> >::_Emplace_one_at_back<FuzzyTerm *>, COMDAT
; _this$ = ecx

; 770  :     _CONSTEXPR20 _Ty& _Emplace_one_at_back(_Valty&&... _Val) {

	push	ebp
	mov	ebp, esp
	sub	esp, 12					; 0000000cH
	mov	DWORD PTR [ebp-12], -858993460		; ccccccccH
	mov	DWORD PTR [ebp-8], -858993460		; ccccccccH
	mov	DWORD PTR [ebp-4], -858993460		; ccccccccH
	mov	DWORD PTR _this$[ebp], ecx

; 771  :         // insert by perfectly forwarding into element at end, provide strong guarantee
; 772  :         auto& _My_data   = _Mypair._Myval2;

	mov	eax, DWORD PTR _this$[ebp]
	mov	DWORD PTR __My_data$[ebp], eax

; 773  :         pointer& _Mylast = _My_data._Mylast;

	mov	ecx, DWORD PTR __My_data$[ebp]
	add	ecx, 8
	mov	DWORD PTR __Mylast$[ebp], ecx

; 774  : 
; 775  :         if (_Mylast != _My_data._Myend) {

	mov	edx, DWORD PTR __Mylast$[ebp]
	mov	eax, DWORD PTR __My_data$[ebp]
	mov	ecx, DWORD PTR [edx]
	cmp	ecx, DWORD PTR [eax+12]
	je	SHORT $LN2@Emplace_on

; 776  :             return _Emplace_back_with_unused_capacity(_STD forward<_Valty>(_Val)...);

	mov	edx, DWORD PTR _<_Val_0>$[ebp]
	push	edx
	call	??$forward@PAVFuzzyTerm@@@std@@YA$$QAPAVFuzzyTerm@@AAPAV1@@Z ; std::forward<FuzzyTerm *>
	add	esp, 4
	push	eax
	mov	ecx, DWORD PTR _this$[ebp]
	call	??$_Emplace_back_with_unused_capacity@PAVFuzzyTerm@@@?$vector@PAVFuzzyTerm@@V?$allocator@PAVFuzzyTerm@@@std@@@std@@AAEAAPAVFuzzyTerm@@$$QAPAV2@@Z ; std::vector<FuzzyTerm *,std::allocator<FuzzyTerm *> >::_Emplace_back_with_unused_capacity<FuzzyTerm *>
	jmp	SHORT $LN1@Emplace_on
$LN2@Emplace_on:

; 777  :         }
; 778  : 
; 779  :         return *_Emplace_reallocate(_Mylast, _STD forward<_Valty>(_Val)...);

	mov	eax, DWORD PTR _<_Val_0>$[ebp]
	push	eax
	call	??$forward@PAVFuzzyTerm@@@std@@YA$$QAPAVFuzzyTerm@@AAPAV1@@Z ; std::forward<FuzzyTerm *>
	add	esp, 4
	push	eax
	mov	ecx, DWORD PTR __Mylast$[ebp]
	mov	edx, DWORD PTR [ecx]
	push	edx
	mov	ecx, DWORD PTR _this$[ebp]
	call	??$_Emplace_reallocate@PAVFuzzyTerm@@@?$vector@PAVFuzzyTerm@@V?$allocator@PAVFuzzyTerm@@@std@@@std@@AAEPAPAVFuzzyTerm@@QAPAV2@$$QAPAV2@@Z ; std::vector<FuzzyTerm *,std::allocator<FuzzyTerm *> >::_Emplace_reallocate<FuzzyTerm *>
$LN1@Emplace_on:

; 780  :     }

	add	esp, 12					; 0000000cH
	cmp	ebp, esp
	call	__RTC_CheckEsp
	mov	esp, ebp
	pop	ebp
	ret	4
??$_Emplace_one_at_back@PAVFuzzyTerm@@@?$vector@PAVFuzzyTerm@@V?$allocator@PAVFuzzyTerm@@@std@@@std@@AAEAAPAVFuzzyTerm@@$$QAPAV2@@Z ENDP ; std::vector<FuzzyTerm *,std::allocator<FuzzyTerm *> >::_Emplace_one_at_back<FuzzyTerm *>
_TEXT	ENDS
; Function compile flags: /Odtp /RTCsu
; File C:\Program Files\Microsoft Visual Studio\2022\Community\VC\Tools\MSVC\14.42.34433\include\type_traits
;	COMDAT ??$move@AAPAVFuzzyTerm@@@std@@YA$$QAPAVFuzzyTerm@@AAPAV1@@Z
_TEXT	SEGMENT
__Arg$ = 8						; size = 4
??$move@AAPAVFuzzyTerm@@@std@@YA$$QAPAVFuzzyTerm@@AAPAV1@@Z PROC ; std::move<FuzzyTerm * &>, COMDAT

; 1537 : _NODISCARD _MSVC_INTRINSIC constexpr remove_reference_t<_Ty>&& move(_Ty&& _Arg) noexcept {

	push	ebp
	mov	ebp, esp

; 1538 :     return static_cast<remove_reference_t<_Ty>&&>(_Arg);

	mov	eax, DWORD PTR __Arg$[ebp]

; 1539 : }

	pop	ebp
	ret	0
??$move@AAPAVFuzzyTerm@@@std@@YA$$QAPAVFuzzyTerm@@AAPAV1@@Z ENDP ; std::move<FuzzyTerm * &>
_TEXT	ENDS
; Function compile flags: /Odtp /RTCsu
; File C:\Program Files\Microsoft Visual Studio\2022\Community\VC\Tools\MSVC\14.42.34433\include\type_traits
;	COMDAT ??$addressof@V?$_Vector_val@U?$_Simple_types@PAVFuzzyTerm@@@std@@@std@@@std@@YAPAV?$_Vector_val@U?$_Simple_types@PAVFuzzyTerm@@@std@@@0@AAV10@@Z
_TEXT	SEGMENT
__Val$ = 8						; size = 4
??$addressof@V?$_Vector_val@U?$_Simple_types@PAVFuzzyTerm@@@std@@@std@@@std@@YAPAV?$_Vector_val@U?$_Simple_types@PAVFuzzyTerm@@@std@@@0@AAV10@@Z PROC ; std::addressof<std::_Vector_val<std::_Simple_types<FuzzyTerm *> > >, COMDAT

; 1549 : _NODISCARD constexpr _Ty* addressof(_Ty& _Val) noexcept {

	push	ebp
	mov	ebp, esp

; 1550 :     return __builtin_addressof(_Val);

	mov	eax, DWORD PTR __Val$[ebp]

; 1551 : }

	pop	ebp
	ret	0
??$addressof@V?$_Vector_val@U?$_Simple_types@PAVFuzzyTerm@@@std@@@std@@@std@@YAPAV?$_Vector_val@U?$_Simple_types@PAVFuzzyTerm@@@std@@@0@AAV10@@Z ENDP ; std::addressof<std::_Vector_val<std::_Simple_types<FuzzyTerm *> > >
_TEXT	ENDS
; Function compile flags: /Odtp /RTCsu
; File C:\Program Files\Microsoft Visual Studio\2022\Community\VC\Tools\MSVC\14.42.34433\include\type_traits
;	COMDAT ??$addressof@$$CBV?$_Vector_val@U?$_Simple_types@PAVFuzzyTerm@@@std@@@std@@@std@@YAPBV?$_Vector_val@U?$_Simple_types@PAVFuzzyTerm@@@std@@@0@ABV10@@Z
_TEXT	SEGMENT
__Val$ = 8						; size = 4
??$addressof@$$CBV?$_Vector_val@U?$_Simple_types@PAVFuzzyTerm@@@std@@@std@@@std@@YAPBV?$_Vector_val@U?$_Simple_types@PAVFuzzyTerm@@@std@@@0@ABV10@@Z PROC ; std::addressof<std::_Vector_val<std::_Simple_types<FuzzyTerm *> > const >, COMDAT

; 1549 : _NODISCARD constexpr _Ty* addressof(_Ty& _Val) noexcept {

	push	ebp
	mov	ebp, esp

; 1550 :     return __builtin_addressof(_Val);

	mov	eax, DWORD PTR __Val$[ebp]

; 1551 : }

	pop	ebp
	ret	0
??$addressof@$$CBV?$_Vector_val@U?$_Simple_types@PAVFuzzyTerm@@@std@@@std@@@std@@YAPBV?$_Vector_val@U?$_Simple_types@PAVFuzzyTerm@@@std@@@0@ABV10@@Z ENDP ; std::addressof<std::_Vector_val<std::_Simple_types<FuzzyTerm *> > const >
_TEXT	ENDS
; Function compile flags: /Odtp /RTCsu
;	COMDAT ??0?$_Vector_iterator@V?$_Vector_val@U?$_Simple_types@PAVFuzzyTerm@@@std@@@std@@@std@@QAE@PAPAVFuzzyTerm@@PBU_Container_base12@1@@Z
_TEXT	SEGMENT
_this$ = -4						; size = 4
___param0$ = 8						; size = 4
___param1$ = 12						; size = 4
??0?$_Vector_iterator@V?$_Vector_val@U?$_Simple_types@PAVFuzzyTerm@@@std@@@std@@@std@@QAE@PAPAVFuzzyTerm@@PBU_Container_base12@1@@Z PROC ; std::_Vector_iterator<std::_Vector_val<std::_Simple_types<FuzzyTerm *> > >::_Vector_iterator<std::_Vector_val<std::_Simple_types<FuzzyTerm *> > >, COMDAT
; _this$ = ecx
	push	ebp
	mov	ebp, esp
	push	ecx
	mov	DWORD PTR [ebp-4], -858993460		; ccccccccH
	mov	DWORD PTR _this$[ebp], ecx
	mov	eax, DWORD PTR ___param1$[ebp]
	push	eax
	mov	ecx, DWORD PTR ___param0$[ebp]
	push	ecx
	mov	ecx, DWORD PTR _this$[ebp]
	call	??0?$_Vector_const_iterator@V?$_Vector_val@U?$_Simple_types@PAVFuzzyTerm@@@std@@@std@@@std@@QAE@PAPAVFuzzyTerm@@PBU_Container_base12@1@@Z ; std::_Vector_const_iterator<std::_Vector_val<std::_Simple_types<FuzzyTerm *> > >::_Vector_const_iterator<std::_Vector_val<std::_Simple_types<FuzzyTerm *> > >
	npad	1
	mov	eax, DWORD PTR _this$[ebp]
	add	esp, 4
	cmp	ebp, esp
	call	__RTC_CheckEsp
	mov	esp, ebp
	pop	ebp
	ret	8
??0?$_Vector_iterator@V?$_Vector_val@U?$_Simple_types@PAVFuzzyTerm@@@std@@@std@@@std@@QAE@PAPAVFuzzyTerm@@PBU_Container_base12@1@@Z ENDP ; std::_Vector_iterator<std::_Vector_val<std::_Simple_types<FuzzyTerm *> > >::_Vector_iterator<std::_Vector_val<std::_Simple_types<FuzzyTerm *> > >
_TEXT	ENDS
; Function compile flags: /Odtp /RTCsu
;	COMDAT ??4?$_Vector_iterator@V?$_Vector_val@U?$_Simple_types@PAVFuzzyTerm@@@std@@@std@@@std@@QAEAAV01@$$QAV01@@Z
_TEXT	SEGMENT
_this$ = -4						; size = 4
___that$ = 8						; size = 4
??4?$_Vector_iterator@V?$_Vector_val@U?$_Simple_types@PAVFuzzyTerm@@@std@@@std@@@std@@QAEAAV01@$$QAV01@@Z PROC ; std::_Vector_iterator<std::_Vector_val<std::_Simple_types<FuzzyTerm *> > >::operator=, COMDAT
; _this$ = ecx
	push	ebp
	mov	ebp, esp
	push	ecx
	mov	DWORD PTR [ebp-4], -858993460		; ccccccccH
	mov	DWORD PTR _this$[ebp], ecx
	mov	eax, DWORD PTR ___that$[ebp]
	push	eax
	mov	ecx, DWORD PTR _this$[ebp]
	call	??4?$_Vector_const_iterator@V?$_Vector_val@U?$_Simple_types@PAVFuzzyTerm@@@std@@@std@@@std@@QAEAAV01@$$QAV01@@Z
	mov	eax, DWORD PTR _this$[ebp]
	add	esp, 4
	cmp	ebp, esp
	call	__RTC_CheckEsp
	mov	esp, ebp
	pop	ebp
	ret	4
??4?$_Vector_iterator@V?$_Vector_val@U?$_Simple_types@PAVFuzzyTerm@@@std@@@std@@@std@@QAEAAV01@$$QAV01@@Z ENDP ; std::_Vector_iterator<std::_Vector_val<std::_Simple_types<FuzzyTerm *> > >::operator=
_TEXT	ENDS
; Function compile flags: /Odtp /RTCsu
;	COMDAT ??1?$_Vector_iterator@V?$_Vector_val@U?$_Simple_types@PAVFuzzyTerm@@@std@@@std@@@std@@QAE@XZ
_TEXT	SEGMENT
_this$ = -4						; size = 4
??1?$_Vector_iterator@V?$_Vector_val@U?$_Simple_types@PAVFuzzyTerm@@@std@@@std@@@std@@QAE@XZ PROC ; std::_Vector_iterator<std::_Vector_val<std::_Simple_types<FuzzyTerm *> > >::~_Vector_iterator<std::_Vector_val<std::_Simple_types<FuzzyTerm *> > >, COMDAT
; _this$ = ecx
	push	ebp
	mov	ebp, esp
	push	ecx
	mov	DWORD PTR [ebp-4], -858993460		; ccccccccH
	mov	DWORD PTR _this$[ebp], ecx
	mov	ecx, DWORD PTR _this$[ebp]
	call	??1?$_Vector_const_iterator@V?$_Vector_val@U?$_Simple_types@PAVFuzzyTerm@@@std@@@std@@@std@@QAE@XZ
	npad	1
	add	esp, 4
	cmp	ebp, esp
	call	__RTC_CheckEsp
	mov	esp, ebp
	pop	ebp
	ret	0
??1?$_Vector_iterator@V?$_Vector_val@U?$_Simple_types@PAVFuzzyTerm@@@std@@@std@@@std@@QAE@XZ ENDP ; std::_Vector_iterator<std::_Vector_val<std::_Simple_types<FuzzyTerm *> > >::~_Vector_iterator<std::_Vector_val<std::_Simple_types<FuzzyTerm *> > >
_TEXT	ENDS
; Function compile flags: /Odtp /RTCsu
;	COMDAT ??0?$_Vector_iterator@V?$_Vector_val@U?$_Simple_types@PAVFuzzyTerm@@@std@@@std@@@std@@QAE@XZ
_TEXT	SEGMENT
_this$ = -4						; size = 4
??0?$_Vector_iterator@V?$_Vector_val@U?$_Simple_types@PAVFuzzyTerm@@@std@@@std@@@std@@QAE@XZ PROC ; std::_Vector_iterator<std::_Vector_val<std::_Simple_types<FuzzyTerm *> > >::_Vector_iterator<std::_Vector_val<std::_Simple_types<FuzzyTerm *> > >, COMDAT
; _this$ = ecx
	push	ebp
	mov	ebp, esp
	push	ecx
	mov	DWORD PTR [ebp-4], -858993460		; ccccccccH
	mov	DWORD PTR _this$[ebp], ecx
	mov	ecx, DWORD PTR _this$[ebp]
	call	??0?$_Vector_const_iterator@V?$_Vector_val@U?$_Simple_types@PAVFuzzyTerm@@@std@@@std@@@std@@QAE@XZ ; std::_Vector_const_iterator<std::_Vector_val<std::_Simple_types<FuzzyTerm *> > >::_Vector_const_iterator<std::_Vector_val<std::_Simple_types<FuzzyTerm *> > >
	npad	1
	mov	eax, DWORD PTR _this$[ebp]
	add	esp, 4
	cmp	ebp, esp
	call	__RTC_CheckEsp
	mov	esp, ebp
	pop	ebp
	ret	0
??0?$_Vector_iterator@V?$_Vector_val@U?$_Simple_types@PAVFuzzyTerm@@@std@@@std@@@std@@QAE@XZ ENDP ; std::_Vector_iterator<std::_Vector_val<std::_Simple_types<FuzzyTerm *> > >::_Vector_iterator<std::_Vector_val<std::_Simple_types<FuzzyTerm *> > >
_TEXT	ENDS
; Function compile flags: /Odtp /RTCsu
; File C:\Program Files\Microsoft Visual Studio\2022\Community\VC\Tools\MSVC\14.42.34433\include\vector
;	COMDAT ??E?$_Vector_iterator@V?$_Vector_val@U?$_Simple_types@PAVFuzzyTerm@@@std@@@std@@@std@@QAEAAV01@XZ
_TEXT	SEGMENT
_this$ = -4						; size = 4
??E?$_Vector_iterator@V?$_Vector_val@U?$_Simple_types@PAVFuzzyTerm@@@std@@@std@@@std@@QAEAAV01@XZ PROC ; std::_Vector_iterator<std::_Vector_val<std::_Simple_types<FuzzyTerm *> > >::operator++, COMDAT
; _this$ = ecx

; 286  :     _CONSTEXPR20 _Vector_iterator& operator++() noexcept {

	push	ebp
	mov	ebp, esp
	push	ecx
	mov	DWORD PTR [ebp-4], -858993460		; ccccccccH
	mov	DWORD PTR _this$[ebp], ecx

; 287  :         _Mybase::operator++();

	mov	ecx, DWORD PTR _this$[ebp]
	call	??E?$_Vector_const_iterator@V?$_Vector_val@U?$_Simple_types@PAVFuzzyTerm@@@std@@@std@@@std@@QAEAAV01@XZ ; std::_Vector_const_iterator<std::_Vector_val<std::_Simple_types<FuzzyTerm *> > >::operator++

; 288  :         return *this;

	mov	eax, DWORD PTR _this$[ebp]

; 289  :     }

	add	esp, 4
	cmp	ebp, esp
	call	__RTC_CheckEsp
	mov	esp, ebp
	pop	ebp
	ret	0
??E?$_Vector_iterator@V?$_Vector_val@U?$_Simple_types@PAVFuzzyTerm@@@std@@@std@@@std@@QAEAAV01@XZ ENDP ; std::_Vector_iterator<std::_Vector_val<std::_Simple_types<FuzzyTerm *> > >::operator++
_TEXT	ENDS
; Function compile flags: /Odtp /RTCsu
; File C:\Program Files\Microsoft Visual Studio\2022\Community\VC\Tools\MSVC\14.42.34433\include\vector
;	COMDAT ??D?$_Vector_iterator@V?$_Vector_val@U?$_Simple_types@PAVFuzzyTerm@@@std@@@std@@@std@@QBEAAPAVFuzzyTerm@@XZ
_TEXT	SEGMENT
_this$ = -4						; size = 4
??D?$_Vector_iterator@V?$_Vector_val@U?$_Simple_types@PAVFuzzyTerm@@@std@@@std@@@std@@QBEAAPAVFuzzyTerm@@XZ PROC ; std::_Vector_iterator<std::_Vector_val<std::_Simple_types<FuzzyTerm *> > >::operator*, COMDAT
; _this$ = ecx

; 270  :     _NODISCARD _CONSTEXPR20 reference operator*() const noexcept {

	push	ebp
	mov	ebp, esp
	push	ecx
	mov	DWORD PTR [ebp-4], -858993460		; ccccccccH
	mov	DWORD PTR _this$[ebp], ecx

; 271  :         return const_cast<reference>(_Mybase::operator*());

	mov	ecx, DWORD PTR _this$[ebp]
	call	??D?$_Vector_const_iterator@V?$_Vector_val@U?$_Simple_types@PAVFuzzyTerm@@@std@@@std@@@std@@QBEABQAVFuzzyTerm@@XZ ; std::_Vector_const_iterator<std::_Vector_val<std::_Simple_types<FuzzyTerm *> > >::operator*

; 272  :     }

	add	esp, 4
	cmp	ebp, esp
	call	__RTC_CheckEsp
	mov	esp, ebp
	pop	ebp
	ret	0
??D?$_Vector_iterator@V?$_Vector_val@U?$_Simple_types@PAVFuzzyTerm@@@std@@@std@@@std@@QBEAAPAVFuzzyTerm@@XZ ENDP ; std::_Vector_iterator<std::_Vector_val<std::_Simple_types<FuzzyTerm *> > >::operator*
_TEXT	ENDS
; Function compile flags: /Odtp /RTCsu
;	COMDAT ??4?$_Vector_const_iterator@V?$_Vector_val@U?$_Simple_types@PAVFuzzyTerm@@@std@@@std@@@std@@QAEAAV01@$$QAV01@@Z
_TEXT	SEGMENT
_this$ = -4						; size = 4
___that$ = 8						; size = 4
??4?$_Vector_const_iterator@V?$_Vector_val@U?$_Simple_types@PAVFuzzyTerm@@@std@@@std@@@std@@QAEAAV01@$$QAV01@@Z PROC ; std::_Vector_const_iterator<std::_Vector_val<std::_Simple_types<FuzzyTerm *> > >::operator=, COMDAT
; _this$ = ecx
	push	ebp
	mov	ebp, esp
	push	ecx
	mov	DWORD PTR [ebp-4], -858993460		; ccccccccH
	mov	DWORD PTR _this$[ebp], ecx
	mov	eax, DWORD PTR ___that$[ebp]
	push	eax
	mov	ecx, DWORD PTR _this$[ebp]
	call	??4_Iterator_base12@std@@QAEAAU01@ABU01@@Z ; std::_Iterator_base12::operator=
	mov	ecx, DWORD PTR _this$[ebp]
	mov	edx, DWORD PTR ___that$[ebp]
	mov	eax, DWORD PTR [edx+8]
	mov	DWORD PTR [ecx+8], eax
	mov	eax, DWORD PTR _this$[ebp]
	add	esp, 4
	cmp	ebp, esp
	call	__RTC_CheckEsp
	mov	esp, ebp
	pop	ebp
	ret	4
??4?$_Vector_const_iterator@V?$_Vector_val@U?$_Simple_types@PAVFuzzyTerm@@@std@@@std@@@std@@QAEAAV01@$$QAV01@@Z ENDP ; std::_Vector_const_iterator<std::_Vector_val<std::_Simple_types<FuzzyTerm *> > >::operator=
_TEXT	ENDS
; Function compile flags: /Odtp /RTCsu
;	COMDAT ??1?$_Vector_const_iterator@V?$_Vector_val@U?$_Simple_types@PAVFuzzyTerm@@@std@@@std@@@std@@QAE@XZ
_TEXT	SEGMENT
_this$ = -4						; size = 4
??1?$_Vector_const_iterator@V?$_Vector_val@U?$_Simple_types@PAVFuzzyTerm@@@std@@@std@@@std@@QAE@XZ PROC ; std::_Vector_const_iterator<std::_Vector_val<std::_Simple_types<FuzzyTerm *> > >::~_Vector_const_iterator<std::_Vector_val<std::_Simple_types<FuzzyTerm *> > >, COMDAT
; _this$ = ecx
	push	ebp
	mov	ebp, esp
	push	ecx
	mov	DWORD PTR [ebp-4], -858993460		; ccccccccH
	mov	DWORD PTR _this$[ebp], ecx
	mov	ecx, DWORD PTR _this$[ebp]
	call	??1_Iterator_base12@std@@QAE@XZ		; std::_Iterator_base12::~_Iterator_base12
	npad	1
	add	esp, 4
	cmp	ebp, esp
	call	__RTC_CheckEsp
	mov	esp, ebp
	pop	ebp
	ret	0
??1?$_Vector_const_iterator@V?$_Vector_val@U?$_Simple_types@PAVFuzzyTerm@@@std@@@std@@@std@@QAE@XZ ENDP ; std::_Vector_const_iterator<std::_Vector_val<std::_Simple_types<FuzzyTerm *> > >::~_Vector_const_iterator<std::_Vector_val<std::_Simple_types<FuzzyTerm *> > >
_TEXT	ENDS
; Function compile flags: /Odtp /RTCsu
; File C:\Program Files\Microsoft Visual Studio\2022\Community\VC\Tools\MSVC\14.42.34433\include\vector
;	COMDAT ?_Compat@?$_Vector_const_iterator@V?$_Vector_val@U?$_Simple_types@PAVFuzzyTerm@@@std@@@std@@@std@@QBEXABV12@@Z
_TEXT	SEGMENT
_this$ = -4						; size = 4
__Right$ = 8						; size = 4
?_Compat@?$_Vector_const_iterator@V?$_Vector_val@U?$_Simple_types@PAVFuzzyTerm@@@std@@@std@@@std@@QBEXABV12@@Z PROC ; std::_Vector_const_iterator<std::_Vector_val<std::_Simple_types<FuzzyTerm *> > >::_Compat, COMDAT
; _this$ = ecx

; 197  :     _CONSTEXPR20 void _Compat(const _Vector_const_iterator& _Right) const noexcept {

	push	ebp
	mov	ebp, esp
	push	ecx
	push	esi
	mov	DWORD PTR [ebp-4], -858993460		; ccccccccH
	mov	DWORD PTR _this$[ebp], ecx
$LN4@Compat:

; 198  :         // test for compatible iterator pair
; 199  : #if _ITERATOR_DEBUG_LEVEL == 0
; 200  :         (void) _Right;
; 201  : #else // ^^^ _ITERATOR_DEBUG_LEVEL == 0 / _ITERATOR_DEBUG_LEVEL != 0 vvv
; 202  :         _STL_VERIFY(this->_Getcont() == _Right._Getcont(), "vector iterators incompatible");

	mov	ecx, DWORD PTR _this$[ebp]
	call	?_Getcont@_Iterator_base12@std@@QBEPBU_Container_base12@2@XZ ; std::_Iterator_base12::_Getcont
	mov	esi, eax
	mov	ecx, DWORD PTR __Right$[ebp]
	call	?_Getcont@_Iterator_base12@std@@QBEPBU_Container_base12@2@XZ ; std::_Iterator_base12::_Getcont
	cmp	esi, eax
	jne	SHORT $LN8@Compat
	jmp	SHORT $LN6@Compat
$LN8@Compat:
	push	OFFSET ??_C@_0BO@CAOBBIOC@vector?5iterators?5incompatible@
	push	OFFSET ??_C@_02DKCKIIND@?$CFs@
	push	0
	push	202					; 000000caH
	push	OFFSET ??_C@_0GB@CIHAIELA@C?3?2Program?5Files?2Microsoft?5Visu@
	push	2
	call	__CrtDbgReport
	add	esp, 24					; 00000018H
	cmp	eax, 1
	jne	SHORT $LN11@Compat
	int	3
$LN11@Compat:
	push	0
	push	202					; 000000caH
	push	OFFSET ??_C@_1MC@ODEKBODI@?$AAC?$AA?3?$AA?2?$AAP?$AAr?$AAo?$AAg?$AAr?$AAa?$AAm?$AA?5?$AAF?$AAi?$AAl?$AAe@
	push	OFFSET ??_C@_11LOCGONAA@@
	push	OFFSET ??_C@_1EA@DJDGNIII@?$AA?$CC?$AAv?$AAe?$AAc?$AAt?$AAo?$AAr?$AA?5?$AAi?$AAt?$AAe?$AAr?$AAa?$AAt?$AAo@
	call	__invalid_parameter
	add	esp, 20					; 00000014H
	xor	ecx, ecx
	jne	SHORT $LN8@Compat
$LN6@Compat:
	xor	edx, edx
	jne	SHORT $LN4@Compat

; 203  : #endif // ^^^ _ITERATOR_DEBUG_LEVEL != 0 ^^^
; 204  :     }

	pop	esi
	add	esp, 4
	cmp	ebp, esp
	call	__RTC_CheckEsp
	mov	esp, ebp
	pop	ebp
	ret	4
?_Compat@?$_Vector_const_iterator@V?$_Vector_val@U?$_Simple_types@PAVFuzzyTerm@@@std@@@std@@@std@@QBEXABV12@@Z ENDP ; std::_Vector_const_iterator<std::_Vector_val<std::_Simple_types<FuzzyTerm *> > >::_Compat
_TEXT	ENDS
; Function compile flags: /Odtp /RTCsu
; File C:\Program Files\Microsoft Visual Studio\2022\Community\VC\Tools\MSVC\14.42.34433\include\vector
;	COMDAT ??9?$_Vector_const_iterator@V?$_Vector_val@U?$_Simple_types@PAVFuzzyTerm@@@std@@@std@@@std@@QBE_NABV01@@Z
_TEXT	SEGMENT
tv69 = -8						; size = 4
_this$ = -4						; size = 4
__Right$ = 8						; size = 4
??9?$_Vector_const_iterator@V?$_Vector_val@U?$_Simple_types@PAVFuzzyTerm@@@std@@@std@@@std@@QBE_NABV01@@Z PROC ; std::_Vector_const_iterator<std::_Vector_val<std::_Simple_types<FuzzyTerm *> > >::operator!=, COMDAT
; _this$ = ecx

; 175  :     _NODISCARD bool operator!=(const _Vector_const_iterator& _Right) const noexcept {

	push	ebp
	mov	ebp, esp
	sub	esp, 8
	mov	DWORD PTR [ebp-8], -858993460		; ccccccccH
	mov	DWORD PTR [ebp-4], -858993460		; ccccccccH
	mov	DWORD PTR _this$[ebp], ecx

; 176  :         return !(*this == _Right);

	mov	eax, DWORD PTR __Right$[ebp]
	push	eax
	mov	ecx, DWORD PTR _this$[ebp]
	call	??8?$_Vector_const_iterator@V?$_Vector_val@U?$_Simple_types@PAVFuzzyTerm@@@std@@@std@@@std@@QBE_NABV01@@Z ; std::_Vector_const_iterator<std::_Vector_val<std::_Simple_types<FuzzyTerm *> > >::operator==
	movzx	ecx, al
	test	ecx, ecx
	jne	SHORT $LN3@operator
	mov	DWORD PTR tv69[ebp], 1
	jmp	SHORT $LN4@operator
$LN3@operator:
	mov	DWORD PTR tv69[ebp], 0
$LN4@operator:
	movzx	eax, BYTE PTR tv69[ebp]

; 177  :     }

	add	esp, 8
	cmp	ebp, esp
	call	__RTC_CheckEsp
	mov	esp, ebp
	pop	ebp
	ret	4
??9?$_Vector_const_iterator@V?$_Vector_val@U?$_Simple_types@PAVFuzzyTerm@@@std@@@std@@@std@@QBE_NABV01@@Z ENDP ; std::_Vector_const_iterator<std::_Vector_val<std::_Simple_types<FuzzyTerm *> > >::operator!=
_TEXT	ENDS
; Function compile flags: /Odtp /RTCsu
; File C:\Program Files\Microsoft Visual Studio\2022\Community\VC\Tools\MSVC\14.42.34433\include\vector
;	COMDAT ??8?$_Vector_const_iterator@V?$_Vector_val@U?$_Simple_types@PAVFuzzyTerm@@@std@@@std@@@std@@QBE_NABV01@@Z
_TEXT	SEGMENT
tv69 = -8						; size = 4
_this$ = -4						; size = 4
__Right$ = 8						; size = 4
??8?$_Vector_const_iterator@V?$_Vector_val@U?$_Simple_types@PAVFuzzyTerm@@@std@@@std@@@std@@QBE_NABV01@@Z PROC ; std::_Vector_const_iterator<std::_Vector_val<std::_Simple_types<FuzzyTerm *> > >::operator==, COMDAT
; _this$ = ecx

; 164  :     _NODISCARD _CONSTEXPR20 bool operator==(const _Vector_const_iterator& _Right) const noexcept {

	push	ebp
	mov	ebp, esp
	sub	esp, 8
	mov	DWORD PTR [ebp-8], -858993460		; ccccccccH
	mov	DWORD PTR [ebp-4], -858993460		; ccccccccH
	mov	DWORD PTR _this$[ebp], ecx

; 165  :         _Compat(_Right);

	mov	eax, DWORD PTR __Right$[ebp]
	push	eax
	mov	ecx, DWORD PTR _this$[ebp]
	call	?_Compat@?$_Vector_const_iterator@V?$_Vector_val@U?$_Simple_types@PAVFuzzyTerm@@@std@@@std@@@std@@QBEXABV12@@Z ; std::_Vector_const_iterator<std::_Vector_val<std::_Simple_types<FuzzyTerm *> > >::_Compat

; 166  :         return _Ptr == _Right._Ptr;

	mov	ecx, DWORD PTR _this$[ebp]
	mov	edx, DWORD PTR __Right$[ebp]
	mov	eax, DWORD PTR [ecx+8]
	cmp	eax, DWORD PTR [edx+8]
	jne	SHORT $LN3@operator
	mov	DWORD PTR tv69[ebp], 1
	jmp	SHORT $LN4@operator
$LN3@operator:
	mov	DWORD PTR tv69[ebp], 0
$LN4@operator:
	movzx	eax, BYTE PTR tv69[ebp]

; 167  :     }

	add	esp, 8
	cmp	ebp, esp
	call	__RTC_CheckEsp
	mov	esp, ebp
	pop	ebp
	ret	4
??8?$_Vector_const_iterator@V?$_Vector_val@U?$_Simple_types@PAVFuzzyTerm@@@std@@@std@@@std@@QBE_NABV01@@Z ENDP ; std::_Vector_const_iterator<std::_Vector_val<std::_Simple_types<FuzzyTerm *> > >::operator==
_TEXT	ENDS
; Function compile flags: /Odtp /RTCsu
; File C:\Program Files\Microsoft Visual Studio\2022\Community\VC\Tools\MSVC\14.42.34433\include\vector
;	COMDAT ??E?$_Vector_const_iterator@V?$_Vector_val@U?$_Simple_types@PAVFuzzyTerm@@@std@@@std@@@std@@QAEAAV01@XZ
_TEXT	SEGMENT
__Mycont$ = -8						; size = 4
_this$ = -4						; size = 4
??E?$_Vector_const_iterator@V?$_Vector_val@U?$_Simple_types@PAVFuzzyTerm@@@std@@@std@@@std@@QAEAAV01@XZ PROC ; std::_Vector_const_iterator<std::_Vector_val<std::_Simple_types<FuzzyTerm *> > >::operator++, COMDAT
; _this$ = ecx

; 74   :     _CONSTEXPR20 _Vector_const_iterator& operator++() noexcept {

	push	ebp
	mov	ebp, esp
	sub	esp, 8
	mov	DWORD PTR [ebp-8], -858993460		; ccccccccH
	mov	DWORD PTR [ebp-4], -858993460		; ccccccccH
	mov	DWORD PTR _this$[ebp], ecx

; 75   : #if _ITERATOR_DEBUG_LEVEL != 0
; 76   :         const auto _Mycont = static_cast<const _Myvec*>(this->_Getcont());

	mov	ecx, DWORD PTR _this$[ebp]
	call	?_Getcont@_Iterator_base12@std@@QBEPBU_Container_base12@2@XZ ; std::_Iterator_base12::_Getcont
	mov	DWORD PTR __Mycont$[ebp], eax
$LN4@operator:

; 77   :         _STL_VERIFY(_Ptr, "can't increment value-initialized vector iterator");

	mov	eax, DWORD PTR _this$[ebp]
	cmp	DWORD PTR [eax+8], 0
	je	SHORT $LN20@operator
	jmp	SHORT $LN6@operator
$LN20@operator:
	push	OFFSET ??_C@_0DC@KEKNBAEB@can?8t?5increment?5value?9initializ@
	push	OFFSET ??_C@_02DKCKIIND@?$CFs@
	push	0
	push	77					; 0000004dH
	push	OFFSET ??_C@_0GB@CIHAIELA@C?3?2Program?5Files?2Microsoft?5Visu@
	push	2
	call	__CrtDbgReport
	add	esp, 24					; 00000018H
	cmp	eax, 1
	jne	SHORT $LN27@operator
	int	3
$LN27@operator:
	push	0
	push	77					; 0000004dH
	push	OFFSET ??_C@_1MC@ODEKBODI@?$AAC?$AA?3?$AA?2?$AAP?$AAr?$AAo?$AAg?$AAr?$AAa?$AAm?$AA?5?$AAF?$AAi?$AAl?$AAe@
	push	OFFSET ??_C@_11LOCGONAA@@
	push	OFFSET ??_C@_1GI@EDCILPL@?$AA?$CC?$AAc?$AAa?$AAn?$AA?8?$AAt?$AA?5?$AAi?$AAn?$AAc?$AAr?$AAe?$AAm?$AAe?$AAn@
	call	__invalid_parameter
	add	esp, 20					; 00000014H
	xor	edx, edx
	jne	SHORT $LN20@operator
$LN6@operator:
	xor	eax, eax
	jne	SHORT $LN4@operator
$LN3@operator:

; 78   :         _STL_VERIFY(_Mycont, "can't increment invalidated vector iterator");

	cmp	DWORD PTR __Mycont$[ebp], 0
	je	SHORT $LN22@operator
	jmp	SHORT $LN12@operator
$LN22@operator:
	push	OFFSET ??_C@_0CM@MNNBKIBC@can?8t?5increment?5invalidated?5vec@
	push	OFFSET ??_C@_02DKCKIIND@?$CFs@
	push	0
	push	78					; 0000004eH
	push	OFFSET ??_C@_0GB@CIHAIELA@C?3?2Program?5Files?2Microsoft?5Visu@
	push	2
	call	__CrtDbgReport
	add	esp, 24					; 00000018H
	cmp	eax, 1
	jne	SHORT $LN28@operator
	int	3
$LN28@operator:
	push	0
	push	78					; 0000004eH
	push	OFFSET ??_C@_1MC@ODEKBODI@?$AAC?$AA?3?$AA?2?$AAP?$AAr?$AAo?$AAg?$AAr?$AAa?$AAm?$AA?5?$AAF?$AAi?$AAl?$AAe@
	push	OFFSET ??_C@_11LOCGONAA@@
	push	OFFSET ??_C@_1FM@ICPJNHLL@?$AA?$CC?$AAc?$AAa?$AAn?$AA?8?$AAt?$AA?5?$AAi?$AAn?$AAc?$AAr?$AAe?$AAm?$AAe?$AAn@
	call	__invalid_parameter
	add	esp, 20					; 00000014H
	xor	edx, edx
	jne	SHORT $LN22@operator
$LN12@operator:
	xor	eax, eax
	jne	SHORT $LN3@operator
$LN9@operator:

; 79   :         _STL_VERIFY(_Ptr < _Mycont->_Mylast, "can't increment vector iterator past end");

	mov	ecx, DWORD PTR _this$[ebp]
	mov	edx, DWORD PTR __Mycont$[ebp]
	mov	eax, DWORD PTR [ecx+8]
	cmp	eax, DWORD PTR [edx+8]
	jae	SHORT $LN24@operator
	jmp	SHORT $LN18@operator
$LN24@operator:
	push	OFFSET ??_C@_0CJ@OAAAAGPM@can?8t?5increment?5vector?5iterator@
	push	OFFSET ??_C@_02DKCKIIND@?$CFs@
	push	0
	push	79					; 0000004fH
	push	OFFSET ??_C@_0GB@CIHAIELA@C?3?2Program?5Files?2Microsoft?5Visu@
	push	2
	call	__CrtDbgReport
	add	esp, 24					; 00000018H
	cmp	eax, 1
	jne	SHORT $LN29@operator
	int	3
$LN29@operator:
	push	0
	push	79					; 0000004fH
	push	OFFSET ??_C@_1MC@ODEKBODI@?$AAC?$AA?3?$AA?2?$AAP?$AAr?$AAo?$AAg?$AAr?$AAa?$AAm?$AA?5?$AAF?$AAi?$AAl?$AAe@
	push	OFFSET ??_C@_11LOCGONAA@@
	push	OFFSET ??_C@_1FG@LDPPKMGP@?$AA?$CC?$AAc?$AAa?$AAn?$AA?8?$AAt?$AA?5?$AAi?$AAn?$AAc?$AAr?$AAe?$AAm?$AAe?$AAn@
	call	__invalid_parameter
	add	esp, 20					; 00000014H
	xor	edx, edx
	jne	SHORT $LN24@operator
$LN18@operator:
	xor	eax, eax
	jne	SHORT $LN9@operator

; 80   : #endif // _ITERATOR_DEBUG_LEVEL != 0
; 81   : 
; 82   :         ++_Ptr;

	mov	ecx, DWORD PTR _this$[ebp]
	mov	edx, DWORD PTR [ecx+8]
	add	edx, 4
	mov	eax, DWORD PTR _this$[ebp]
	mov	DWORD PTR [eax+8], edx

; 83   :         return *this;

	mov	eax, DWORD PTR _this$[ebp]

; 84   :     }

	add	esp, 8
	cmp	ebp, esp
	call	__RTC_CheckEsp
	mov	esp, ebp
	pop	ebp
	ret	0
??E?$_Vector_const_iterator@V?$_Vector_val@U?$_Simple_types@PAVFuzzyTerm@@@std@@@std@@@std@@QAEAAV01@XZ ENDP ; std::_Vector_const_iterator<std::_Vector_val<std::_Simple_types<FuzzyTerm *> > >::operator++
_TEXT	ENDS
; Function compile flags: /Odtp /RTCsu
; File C:\Program Files\Microsoft Visual Studio\2022\Community\VC\Tools\MSVC\14.42.34433\include\vector
;	COMDAT ??D?$_Vector_const_iterator@V?$_Vector_val@U?$_Simple_types@PAVFuzzyTerm@@@std@@@std@@@std@@QBEABQAVFuzzyTerm@@XZ
_TEXT	SEGMENT
__Mycont$ = -8						; size = 4
_this$ = -4						; size = 4
??D?$_Vector_const_iterator@V?$_Vector_val@U?$_Simple_types@PAVFuzzyTerm@@@std@@@std@@@std@@QBEABQAVFuzzyTerm@@XZ PROC ; std::_Vector_const_iterator<std::_Vector_val<std::_Simple_types<FuzzyTerm *> > >::operator*, COMDAT
; _this$ = ecx

; 50   :     _NODISCARD _CONSTEXPR20 reference operator*() const noexcept {

	push	ebp
	mov	ebp, esp
	sub	esp, 8
	mov	DWORD PTR [ebp-8], -858993460		; ccccccccH
	mov	DWORD PTR [ebp-4], -858993460		; ccccccccH
	mov	DWORD PTR _this$[ebp], ecx

; 51   : #if _ITERATOR_DEBUG_LEVEL != 0
; 52   :         const auto _Mycont = static_cast<const _Myvec*>(this->_Getcont());

	mov	ecx, DWORD PTR _this$[ebp]
	call	?_Getcont@_Iterator_base12@std@@QBEPBU_Container_base12@2@XZ ; std::_Iterator_base12::_Getcont
	mov	DWORD PTR __Mycont$[ebp], eax
$LN4@operator:

; 53   :         _STL_VERIFY(_Ptr, "can't dereference value-initialized vector iterator");

	mov	eax, DWORD PTR _this$[ebp]
	cmp	DWORD PTR [eax+8], 0
	je	SHORT $LN20@operator
	jmp	SHORT $LN6@operator
$LN20@operator:
	push	OFFSET ??_C@_0DE@CHADHGFF@can?8t?5dereference?5value?9initial@
	push	OFFSET ??_C@_02DKCKIIND@?$CFs@
	push	0
	push	53					; 00000035H
	push	OFFSET ??_C@_0GB@CIHAIELA@C?3?2Program?5Files?2Microsoft?5Visu@
	push	2
	call	__CrtDbgReport
	add	esp, 24					; 00000018H
	cmp	eax, 1
	jne	SHORT $LN27@operator
	int	3
$LN27@operator:
	push	0
	push	53					; 00000035H
	push	OFFSET ??_C@_1MC@ODEKBODI@?$AAC?$AA?3?$AA?2?$AAP?$AAr?$AAo?$AAg?$AAr?$AAa?$AAm?$AA?5?$AAF?$AAi?$AAl?$AAe@
	push	OFFSET ??_C@_11LOCGONAA@@
	push	OFFSET ??_C@_1GM@FNBFNBEL@?$AA?$CC?$AAc?$AAa?$AAn?$AA?8?$AAt?$AA?5?$AAd?$AAe?$AAr?$AAe?$AAf?$AAe?$AAr?$AAe@
	call	__invalid_parameter
	add	esp, 20					; 00000014H
	xor	edx, edx
	jne	SHORT $LN20@operator
$LN6@operator:
	xor	eax, eax
	jne	SHORT $LN4@operator
$LN3@operator:

; 54   :         _STL_VERIFY(_Mycont, "can't dereference invalidated vector iterator");

	cmp	DWORD PTR __Mycont$[ebp], 0
	je	SHORT $LN22@operator
	jmp	SHORT $LN12@operator
$LN22@operator:
	push	OFFSET ??_C@_0CO@PGFNEDAH@can?8t?5dereference?5invalidated?5v@
	push	OFFSET ??_C@_02DKCKIIND@?$CFs@
	push	0
	push	54					; 00000036H
	push	OFFSET ??_C@_0GB@CIHAIELA@C?3?2Program?5Files?2Microsoft?5Visu@
	push	2
	call	__CrtDbgReport
	add	esp, 24					; 00000018H
	cmp	eax, 1
	jne	SHORT $LN28@operator
	int	3
$LN28@operator:
	push	0
	push	54					; 00000036H
	push	OFFSET ??_C@_1MC@ODEKBODI@?$AAC?$AA?3?$AA?2?$AAP?$AAr?$AAo?$AAg?$AAr?$AAa?$AAm?$AA?5?$AAF?$AAi?$AAl?$AAe@
	push	OFFSET ??_C@_11LOCGONAA@@
	push	OFFSET ??_C@_1GA@CLCDIGKJ@?$AA?$CC?$AAc?$AAa?$AAn?$AA?8?$AAt?$AA?5?$AAd?$AAe?$AAr?$AAe?$AAf?$AAe?$AAr?$AAe@
	call	__invalid_parameter
	add	esp, 20					; 00000014H
	xor	edx, edx
	jne	SHORT $LN22@operator
$LN12@operator:
	xor	eax, eax
	jne	SHORT $LN3@operator
$LN9@operator:

; 55   :         _STL_VERIFY(

	mov	ecx, DWORD PTR __Mycont$[ebp]
	mov	edx, DWORD PTR _this$[ebp]
	mov	eax, DWORD PTR [ecx+4]
	cmp	eax, DWORD PTR [edx+8]
	ja	SHORT $LN24@operator
	mov	ecx, DWORD PTR _this$[ebp]
	mov	edx, DWORD PTR __Mycont$[ebp]
	mov	eax, DWORD PTR [ecx+8]
	cmp	eax, DWORD PTR [edx+8]
	jae	SHORT $LN24@operator
	jmp	SHORT $LN18@operator
$LN24@operator:
	push	OFFSET ??_C@_0CP@MDHADBHN@can?8t?5dereference?5out?5of?5range?5@
	push	OFFSET ??_C@_02DKCKIIND@?$CFs@
	push	0
	push	56					; 00000038H
	push	OFFSET ??_C@_0GB@CIHAIELA@C?3?2Program?5Files?2Microsoft?5Visu@
	push	2
	call	__CrtDbgReport
	add	esp, 24					; 00000018H
	cmp	eax, 1
	jne	SHORT $LN29@operator
	int	3
$LN29@operator:
	push	0
	push	56					; 00000038H
	push	OFFSET ??_C@_1MC@ODEKBODI@?$AAC?$AA?3?$AA?2?$AAP?$AAr?$AAo?$AAg?$AAr?$AAa?$AAm?$AA?5?$AAF?$AAi?$AAl?$AAe@
	push	OFFSET ??_C@_11LOCGONAA@@
	push	OFFSET ??_C@_1GC@JDCKOLAC@?$AA?$CC?$AAc?$AAa?$AAn?$AA?8?$AAt?$AA?5?$AAd?$AAe?$AAr?$AAe?$AAf?$AAe?$AAr?$AAe@
	call	__invalid_parameter
	add	esp, 20					; 00000014H
	xor	edx, edx
	jne	SHORT $LN24@operator
$LN18@operator:
	xor	eax, eax
	jne	SHORT $LN9@operator

; 56   :             _Mycont->_Myfirst <= _Ptr && _Ptr < _Mycont->_Mylast, "can't dereference out of range vector iterator");
; 57   : #endif // _ITERATOR_DEBUG_LEVEL != 0
; 58   : 
; 59   :         return *_Ptr;

	mov	ecx, DWORD PTR _this$[ebp]
	mov	eax, DWORD PTR [ecx+8]

; 60   :     }

	add	esp, 8
	cmp	ebp, esp
	call	__RTC_CheckEsp
	mov	esp, ebp
	pop	ebp
	ret	0
??D?$_Vector_const_iterator@V?$_Vector_val@U?$_Simple_types@PAVFuzzyTerm@@@std@@@std@@@std@@QBEABQAVFuzzyTerm@@XZ ENDP ; std::_Vector_const_iterator<std::_Vector_val<std::_Simple_types<FuzzyTerm *> > >::operator*
_TEXT	ENDS
; Function compile flags: /Odtp /RTCsu
; File C:\Program Files\Microsoft Visual Studio\2022\Community\VC\Tools\MSVC\14.42.34433\include\vector
;	COMDAT ??0?$_Vector_const_iterator@V?$_Vector_val@U?$_Simple_types@PAVFuzzyTerm@@@std@@@std@@@std@@QAE@PAPAVFuzzyTerm@@PBU_Container_base12@1@@Z
_TEXT	SEGMENT
_this$ = -4						; size = 4
__Parg$ = 8						; size = 4
__Pvector$ = 12						; size = 4
??0?$_Vector_const_iterator@V?$_Vector_val@U?$_Simple_types@PAVFuzzyTerm@@@std@@@std@@@std@@QAE@PAPAVFuzzyTerm@@PBU_Container_base12@1@@Z PROC ; std::_Vector_const_iterator<std::_Vector_val<std::_Simple_types<FuzzyTerm *> > >::_Vector_const_iterator<std::_Vector_val<std::_Simple_types<FuzzyTerm *> > >, COMDAT
; _this$ = ecx

; 46   :     _CONSTEXPR20 _Vector_const_iterator(_Tptr _Parg, const _Container_base* _Pvector) noexcept : _Ptr(_Parg) {

	push	ebp
	mov	ebp, esp
	push	ecx
	mov	DWORD PTR [ebp-4], -858993460		; ccccccccH
	mov	DWORD PTR _this$[ebp], ecx
	mov	ecx, DWORD PTR _this$[ebp]
	call	??0_Iterator_base12@std@@QAE@XZ		; std::_Iterator_base12::_Iterator_base12
	mov	eax, DWORD PTR _this$[ebp]
	mov	ecx, DWORD PTR __Parg$[ebp]
	mov	DWORD PTR [eax+8], ecx

; 47   :         this->_Adopt(_Pvector);

	mov	edx, DWORD PTR __Pvector$[ebp]
	push	edx
	mov	ecx, DWORD PTR _this$[ebp]
	call	?_Adopt@_Iterator_base12@std@@QAEXPBU_Container_base12@2@@Z ; std::_Iterator_base12::_Adopt
	npad	1

; 48   :     }

	mov	eax, DWORD PTR _this$[ebp]
	add	esp, 4
	cmp	ebp, esp
	call	__RTC_CheckEsp
	mov	esp, ebp
	pop	ebp
	ret	8
??0?$_Vector_const_iterator@V?$_Vector_val@U?$_Simple_types@PAVFuzzyTerm@@@std@@@std@@@std@@QAE@PAPAVFuzzyTerm@@PBU_Container_base12@1@@Z ENDP ; std::_Vector_const_iterator<std::_Vector_val<std::_Simple_types<FuzzyTerm *> > >::_Vector_const_iterator<std::_Vector_val<std::_Simple_types<FuzzyTerm *> > >
_TEXT	ENDS
; Function compile flags: /Odtp /RTCsu
; File C:\Program Files\Microsoft Visual Studio\2022\Community\VC\Tools\MSVC\14.42.34433\include\vector
;	COMDAT ??0?$_Vector_const_iterator@V?$_Vector_val@U?$_Simple_types@PAVFuzzyTerm@@@std@@@std@@@std@@QAE@XZ
_TEXT	SEGMENT
_this$ = -4						; size = 4
??0?$_Vector_const_iterator@V?$_Vector_val@U?$_Simple_types@PAVFuzzyTerm@@@std@@@std@@@std@@QAE@XZ PROC ; std::_Vector_const_iterator<std::_Vector_val<std::_Simple_types<FuzzyTerm *> > >::_Vector_const_iterator<std::_Vector_val<std::_Simple_types<FuzzyTerm *> > >, COMDAT
; _this$ = ecx

; 44   :     _CONSTEXPR20 _Vector_const_iterator() noexcept : _Ptr() {}

	push	ebp
	mov	ebp, esp
	push	ecx
	mov	DWORD PTR [ebp-4], -858993460		; ccccccccH
	mov	DWORD PTR _this$[ebp], ecx
	mov	ecx, DWORD PTR _this$[ebp]
	call	??0_Iterator_base12@std@@QAE@XZ		; std::_Iterator_base12::_Iterator_base12
	mov	eax, DWORD PTR _this$[ebp]
	mov	DWORD PTR [eax+8], 0
	mov	eax, DWORD PTR _this$[ebp]
	add	esp, 4
	cmp	ebp, esp
	call	__RTC_CheckEsp
	mov	esp, ebp
	pop	ebp
	ret	0
??0?$_Vector_const_iterator@V?$_Vector_val@U?$_Simple_types@PAVFuzzyTerm@@@std@@@std@@@std@@QAE@XZ ENDP ; std::_Vector_const_iterator<std::_Vector_val<std::_Simple_types<FuzzyTerm *> > >::_Vector_const_iterator<std::_Vector_val<std::_Simple_types<FuzzyTerm *> > >
_TEXT	ENDS
; Function compile flags: /Odtp /RTCsu
;	COMDAT ??_GFzOR@@UAEPAXI@Z
_TEXT	SEGMENT
_this$ = -4						; size = 4
___flags$ = 8						; size = 4
??_GFzOR@@UAEPAXI@Z PROC				; FzOR::`scalar deleting destructor', COMDAT
; _this$ = ecx
	push	ebp
	mov	ebp, esp
	push	ecx
	mov	DWORD PTR [ebp-4], -858993460		; ccccccccH
	mov	DWORD PTR _this$[ebp], ecx
	mov	ecx, DWORD PTR _this$[ebp]
	call	??1FzOR@@UAE@XZ				; FzOR::~FzOR
	mov	eax, DWORD PTR ___flags$[ebp]
	and	eax, 1
	je	SHORT $LN2@scalar
	push	20					; 00000014H
	mov	ecx, DWORD PTR _this$[ebp]
	push	ecx
	call	??3@YAXPAXI@Z				; operator delete
	add	esp, 8
$LN2@scalar:
	mov	eax, DWORD PTR _this$[ebp]
	add	esp, 4
	cmp	ebp, esp
	call	__RTC_CheckEsp
	mov	esp, ebp
	pop	ebp
	ret	4
??_GFzOR@@UAEPAXI@Z ENDP				; FzOR::`scalar deleting destructor'
_TEXT	ENDS
; Function compile flags: /Odtp /RTCsu
; File C:\Users\rpg26\OneDrive\Desktop\Source\VS2010\Common\fuzzy\FuzzyOperators.h
;	COMDAT ?ORwithDOM@FzOR@@UAEXN@Z
_TEXT	SEGMENT
_this$ = -4						; size = 4
_val$ = 8						; size = 8
?ORwithDOM@FzOR@@UAEXN@Z PROC				; FzOR::ORwithDOM, COMDAT
; _this$ = ecx

; 87   :   void ORwithDOM(double val){assert(0 && "<FzOR::ORwithDOM>: invalid context");}

	push	ebp
	mov	ebp, esp
	push	ecx
	mov	DWORD PTR [ebp-4], -858993460		; ccccccccH
	mov	DWORD PTR _this$[ebp], ecx
	xor	eax, eax
	jne	SHORT $LN3@ORwithDOM
	push	87					; 00000057H
	push	OFFSET ??_C@_1JI@ONAHGKND@?$AAC?$AA?3?$AA?2?$AAU?$AAs?$AAe?$AAr?$AAs?$AA?2?$AAr?$AAp?$AAg?$AA2?$AA6?$AA?2@
	push	OFFSET ??_C@_1FE@EKNHDPMB@?$AA0?$AA?5?$AA?$CG?$AA?$CG?$AA?5?$AA?$CC?$AA?$DM?$AAF?$AAz?$AAO?$AAR?$AA?3?$AA?3?$AAO?$AAR@
	call	__wassert
	add	esp, 12					; 0000000cH
$LN3@ORwithDOM:
	add	esp, 4
	cmp	ebp, esp
	call	__RTC_CheckEsp
	mov	esp, ebp
	pop	ebp
	ret	8
?ORwithDOM@FzOR@@UAEXN@Z ENDP				; FzOR::ORwithDOM
_TEXT	ENDS
; Function compile flags: /Odtp /RTCsu
; File C:\Users\rpg26\OneDrive\Desktop\Source\VS2010\Common\fuzzy\FuzzyOperators.h
;	COMDAT ?ClearDOM@FzOR@@UAEXXZ
_TEXT	SEGMENT
_this$ = -4						; size = 4
?ClearDOM@FzOR@@UAEXXZ PROC				; FzOR::ClearDOM, COMDAT
; _this$ = ecx

; 86   :   void ClearDOM(){assert(0 && "<FzOR::ClearDOM>: invalid context");}

	push	ebp
	mov	ebp, esp
	push	ecx
	mov	DWORD PTR [ebp-4], -858993460		; ccccccccH
	mov	DWORD PTR _this$[ebp], ecx
	xor	eax, eax
	jne	SHORT $LN3@ClearDOM
	push	86					; 00000056H
	push	OFFSET ??_C@_1JI@ONAHGKND@?$AAC?$AA?3?$AA?2?$AAU?$AAs?$AAe?$AAr?$AAs?$AA?2?$AAr?$AAp?$AAg?$AA2?$AA6?$AA?2@
	push	OFFSET ??_C@_1FC@EJGEACIH@?$AA0?$AA?5?$AA?$CG?$AA?$CG?$AA?5?$AA?$CC?$AA?$DM?$AAF?$AAz?$AAO?$AAR?$AA?3?$AA?3?$AAC?$AAl@
	call	__wassert
	add	esp, 12					; 0000000cH
$LN3@ClearDOM:
	add	esp, 4
	cmp	ebp, esp
	call	__RTC_CheckEsp
	mov	esp, ebp
	pop	ebp
	ret	0
?ClearDOM@FzOR@@UAEXXZ ENDP				; FzOR::ClearDOM
_TEXT	ENDS
; Function compile flags: /Odtp /RTCsu
; File C:\Users\rpg26\OneDrive\Desktop\Source\VS2010\Common\fuzzy\FuzzyOperators.cpp
_TEXT	SEGMENT
tv132 = -104						; size = 4
tv163 = -100						; size = 8
tv91 = -92						; size = 4
tv140 = -88						; size = 4
tv138 = -84						; size = 4
$T2 = -80						; size = 8
$T3 = -72						; size = 12
$T4 = -57						; size = 1
$T5 = -56						; size = 12
_curTerm$ = -40						; size = 12
_largest$ = -24						; size = 8
_this$ = -16						; size = 4
__$EHRec$ = -12						; size = 12
?GetDOM@FzOR@@UBENXZ PROC				; FzOR::GetDOM
; _this$ = ecx

; 147  : {

	push	ebp
	mov	ebp, esp
	push	-1
	push	__ehhandler$?GetDOM@FzOR@@UBENXZ
	mov	eax, DWORD PTR fs:0
	push	eax
	sub	esp, 92					; 0000005cH
	push	esi
	push	edi
	push	ecx
	lea	edi, DWORD PTR [ebp-104]
	mov	ecx, 23					; 00000017H
	mov	eax, -858993460				; ccccccccH
	rep stosd
	pop	ecx
	mov	eax, DWORD PTR ___security_cookie
	xor	eax, ebp
	push	eax
	lea	eax, DWORD PTR __$EHRec$[ebp]
	mov	DWORD PTR fs:0, eax
	mov	DWORD PTR _this$[ebp], ecx

; 148  :   double largest = MinFloat;

	movsd	xmm0, QWORD PTR __real@3810000000000000
	movsd	QWORD PTR _largest$[ebp], xmm0

; 149  : 
; 150  :   std::vector<FuzzyTerm*>::const_iterator curTerm;

	lea	ecx, DWORD PTR _curTerm$[ebp]
	call	??0?$_Vector_const_iterator@V?$_Vector_val@U?$_Simple_types@PAVFuzzyTerm@@@std@@@std@@@std@@QAE@XZ ; std::_Vector_const_iterator<std::_Vector_val<std::_Simple_types<FuzzyTerm *> > >::_Vector_const_iterator<std::_Vector_val<std::_Simple_types<FuzzyTerm *> > >
	mov	DWORD PTR __$EHRec$[ebp+8], 0

; 151  :   for (curTerm = m_Terms.begin(); curTerm != m_Terms.end(); ++curTerm)

	lea	eax, DWORD PTR $T5[ebp]
	push	eax
	mov	ecx, DWORD PTR _this$[ebp]
	add	ecx, 4
	call	?begin@?$vector@PAVFuzzyTerm@@V?$allocator@PAVFuzzyTerm@@@std@@@std@@QBE?AV?$_Vector_const_iterator@V?$_Vector_val@U?$_Simple_types@PAVFuzzyTerm@@@std@@@std@@@2@XZ ; std::vector<FuzzyTerm *,std::allocator<FuzzyTerm *> >::begin
	mov	DWORD PTR tv138[ebp], eax
	mov	ecx, DWORD PTR tv138[ebp]
	push	ecx
	lea	ecx, DWORD PTR _curTerm$[ebp]
	call	??4?$_Vector_const_iterator@V?$_Vector_val@U?$_Simple_types@PAVFuzzyTerm@@@std@@@std@@@std@@QAEAAV01@$$QAV01@@Z
	lea	ecx, DWORD PTR $T5[ebp]
	call	??1?$_Vector_const_iterator@V?$_Vector_val@U?$_Simple_types@PAVFuzzyTerm@@@std@@@std@@@std@@QAE@XZ
	npad	1
	jmp	SHORT $LN4@GetDOM
$LN2@GetDOM:
	lea	ecx, DWORD PTR _curTerm$[ebp]
	call	??E?$_Vector_const_iterator@V?$_Vector_val@U?$_Simple_types@PAVFuzzyTerm@@@std@@@std@@@std@@QAEAAV01@XZ ; std::_Vector_const_iterator<std::_Vector_val<std::_Simple_types<FuzzyTerm *> > >::operator++
	npad	1
$LN4@GetDOM:
	lea	edx, DWORD PTR $T3[ebp]
	push	edx
	mov	ecx, DWORD PTR _this$[ebp]
	add	ecx, 4
	call	?end@?$vector@PAVFuzzyTerm@@V?$allocator@PAVFuzzyTerm@@@std@@@std@@QBE?AV?$_Vector_const_iterator@V?$_Vector_val@U?$_Simple_types@PAVFuzzyTerm@@@std@@@std@@@2@XZ ; std::vector<FuzzyTerm *,std::allocator<FuzzyTerm *> >::end
	mov	DWORD PTR tv140[ebp], eax
	mov	eax, DWORD PTR tv140[ebp]
	push	eax
	lea	ecx, DWORD PTR _curTerm$[ebp]
	call	??9?$_Vector_const_iterator@V?$_Vector_val@U?$_Simple_types@PAVFuzzyTerm@@@std@@@std@@@std@@QBE_NABV01@@Z ; std::_Vector_const_iterator<std::_Vector_val<std::_Simple_types<FuzzyTerm *> > >::operator!=
	mov	BYTE PTR $T4[ebp], al
	lea	ecx, DWORD PTR $T3[ebp]
	call	??1?$_Vector_const_iterator@V?$_Vector_val@U?$_Simple_types@PAVFuzzyTerm@@@std@@@std@@@std@@QAE@XZ
	movzx	ecx, BYTE PTR $T4[ebp]
	test	ecx, ecx
	je	SHORT $LN3@GetDOM

; 152  :   {
; 153  :     if ((*curTerm)->GetDOM() > largest)

	lea	ecx, DWORD PTR _curTerm$[ebp]
	call	??D?$_Vector_const_iterator@V?$_Vector_val@U?$_Simple_types@PAVFuzzyTerm@@@std@@@std@@@std@@QBEABQAVFuzzyTerm@@XZ ; std::_Vector_const_iterator<std::_Vector_val<std::_Simple_types<FuzzyTerm *> > >::operator*
	mov	edx, DWORD PTR [eax]
	mov	DWORD PTR tv91[ebp], edx
	mov	eax, DWORD PTR tv91[ebp]
	mov	edx, DWORD PTR [eax]
	mov	esi, esp
	mov	ecx, DWORD PTR tv91[ebp]
	mov	eax, DWORD PTR [edx+8]
	call	eax
	cmp	esi, esp
	call	__RTC_CheckEsp
	fstp	QWORD PTR tv163[ebp]
	movsd	xmm0, QWORD PTR tv163[ebp]
	comisd	xmm0, QWORD PTR _largest$[ebp]
	jbe	SHORT $LN5@GetDOM

; 154  :     {
; 155  :       largest = (*curTerm)->GetDOM();

	lea	ecx, DWORD PTR _curTerm$[ebp]
	call	??D?$_Vector_const_iterator@V?$_Vector_val@U?$_Simple_types@PAVFuzzyTerm@@@std@@@std@@@std@@QBEABQAVFuzzyTerm@@XZ ; std::_Vector_const_iterator<std::_Vector_val<std::_Simple_types<FuzzyTerm *> > >::operator*
	mov	ecx, DWORD PTR [eax]
	mov	DWORD PTR tv132[ebp], ecx
	mov	edx, DWORD PTR tv132[ebp]
	mov	eax, DWORD PTR [edx]
	mov	esi, esp
	mov	ecx, DWORD PTR tv132[ebp]
	mov	edx, DWORD PTR [eax+8]
	call	edx
	cmp	esi, esp
	call	__RTC_CheckEsp
	fstp	QWORD PTR _largest$[ebp]
$LN5@GetDOM:

; 156  :     }
; 157  :   }

	jmp	$LN2@GetDOM
$LN3@GetDOM:

; 158  : 
; 159  :   return largest;

	movsd	xmm0, QWORD PTR _largest$[ebp]
	movsd	QWORD PTR $T2[ebp], xmm0
	mov	DWORD PTR __$EHRec$[ebp+8], -1
	lea	ecx, DWORD PTR _curTerm$[ebp]
	call	??1?$_Vector_const_iterator@V?$_Vector_val@U?$_Simple_types@PAVFuzzyTerm@@@std@@@std@@@std@@QAE@XZ
	fld	QWORD PTR $T2[ebp]

; 160  : }

	push	edx
	mov	ecx, ebp
	push	eax
	lea	edx, DWORD PTR $LN13@GetDOM
	call	@_RTC_CheckStackVars@8
	pop	eax
	pop	edx
	mov	ecx, DWORD PTR __$EHRec$[ebp]
	mov	DWORD PTR fs:0, ecx
	pop	ecx
	pop	edi
	pop	esi
	add	esp, 104				; 00000068H
	cmp	ebp, esp
	call	__RTC_CheckEsp
	mov	esp, ebp
	pop	ebp
	ret	0
	npad	1
$LN13@GetDOM:
	DD	1
	DD	$LN12@GetDOM
$LN12@GetDOM:
	DD	-40					; ffffffd8H
	DD	12					; 0000000cH
	DD	$LN10@GetDOM
$LN10@GetDOM:
	DB	99					; 00000063H
	DB	117					; 00000075H
	DB	114					; 00000072H
	DB	84					; 00000054H
	DB	101					; 00000065H
	DB	114					; 00000072H
	DB	109					; 0000006dH
	DB	0
_TEXT	ENDS
text$x	SEGMENT
__unwindfunclet$?GetDOM@FzOR@@UBENXZ$0:
	lea	ecx, DWORD PTR _curTerm$[ebp]
	jmp	??1?$_Vector_const_iterator@V?$_Vector_val@U?$_Simple_types@PAVFuzzyTerm@@@std@@@std@@@std@@QAE@XZ
	int	3
	int	3
	int	3
	int	3
	int	3
__ehhandler$?GetDOM@FzOR@@UBENXZ:
	npad	1
	npad	1
	mov	edx, DWORD PTR [esp+8]
	lea	eax, DWORD PTR [edx+12]
	mov	ecx, DWORD PTR [edx-104]
	xor	ecx, eax
	call	@__security_check_cookie@4
	mov	eax, OFFSET __ehfuncinfo$?GetDOM@FzOR@@UBENXZ
	jmp	___CxxFrameHandler3
text$x	ENDS
?GetDOM@FzOR@@UBENXZ ENDP				; FzOR::GetDOM
; Function compile flags: /Odtp /RTCsu
; File C:\Users\rpg26\OneDrive\Desktop\Source\VS2010\Common\fuzzy\FuzzyOperators.h
;	COMDAT ?Clone@FzOR@@UBEPAVFuzzyTerm@@XZ
_TEXT	SEGMENT
tv79 = -28						; size = 4
$T2 = -24						; size = 4
$T3 = -20						; size = 4
_this$ = -16						; size = 4
__$EHRec$ = -12						; size = 12
?Clone@FzOR@@UBEPAVFuzzyTerm@@XZ PROC			; FzOR::Clone, COMDAT
; _this$ = ecx

; 81   :   FuzzyTerm* Clone()const{return new FzOR(*this);}

	push	ebp
	mov	ebp, esp
	push	-1
	push	__ehhandler$?Clone@FzOR@@UBEPAVFuzzyTerm@@XZ
	mov	eax, DWORD PTR fs:0
	push	eax
	sub	esp, 16					; 00000010H
	mov	eax, -858993460				; ccccccccH
	mov	DWORD PTR [ebp-28], eax
	mov	DWORD PTR [ebp-24], eax
	mov	DWORD PTR [ebp-20], eax
	mov	DWORD PTR [ebp-16], eax
	mov	eax, DWORD PTR ___security_cookie
	xor	eax, ebp
	push	eax
	lea	eax, DWORD PTR __$EHRec$[ebp]
	mov	DWORD PTR fs:0, eax
	mov	DWORD PTR _this$[ebp], ecx
	push	20					; 00000014H
	call	??2@YAPAXI@Z				; operator new
	add	esp, 4
	mov	DWORD PTR $T2[ebp], eax
	mov	DWORD PTR __$EHRec$[ebp+8], 0
	cmp	DWORD PTR $T2[ebp], 0
	je	SHORT $LN3@Clone
	mov	eax, DWORD PTR _this$[ebp]
	push	eax
	mov	ecx, DWORD PTR $T2[ebp]
	call	??0FzOR@@QAE@ABV0@@Z			; FzOR::FzOR
	mov	DWORD PTR tv79[ebp], eax
	jmp	SHORT $LN4@Clone
$LN3@Clone:
	mov	DWORD PTR tv79[ebp], 0
$LN4@Clone:
	mov	ecx, DWORD PTR tv79[ebp]
	mov	DWORD PTR $T3[ebp], ecx
	mov	DWORD PTR __$EHRec$[ebp+8], -1
	mov	eax, DWORD PTR $T3[ebp]
	mov	ecx, DWORD PTR __$EHRec$[ebp]
	mov	DWORD PTR fs:0, ecx
	pop	ecx
	add	esp, 28					; 0000001cH
	cmp	ebp, esp
	call	__RTC_CheckEsp
	mov	esp, ebp
	pop	ebp
	ret	0
_TEXT	ENDS
;	COMDAT text$x
text$x	SEGMENT
__unwindfunclet$?Clone@FzOR@@UBEPAVFuzzyTerm@@XZ$0:
	push	20					; 00000014H
	mov	eax, DWORD PTR $T2[ebp]
	push	eax
	call	??3@YAXPAXI@Z				; operator delete
	add	esp, 8
	ret	0
	int	3
	int	3
	int	3
	int	3
	int	3
__ehhandler$?Clone@FzOR@@UBEPAVFuzzyTerm@@XZ:
	npad	1
	npad	1
	mov	edx, DWORD PTR [esp+8]
	lea	eax, DWORD PTR [edx+12]
	mov	ecx, DWORD PTR [edx-20]
	xor	ecx, eax
	call	@__security_check_cookie@4
	mov	eax, OFFSET __ehfuncinfo$?Clone@FzOR@@UBEPAVFuzzyTerm@@XZ
	jmp	___CxxFrameHandler3
text$x	ENDS
?Clone@FzOR@@UBEPAVFuzzyTerm@@XZ ENDP			; FzOR::Clone
; Function compile flags: /Odtp /RTCsu
; File C:\Users\rpg26\OneDrive\Desktop\Source\VS2010\Common\fuzzy\FuzzyOperators.cpp
_TEXT	SEGMENT
$T2 = -32						; size = 4
$T3 = -28						; size = 4
$T4 = -24						; size = 4
$T5 = -20						; size = 4
_this$ = -16						; size = 4
__$EHRec$ = -12						; size = 12
_op1$ = 8						; size = 4
_op2$ = 12						; size = 4
_op3$ = 16						; size = 4
_op4$ = 20						; size = 4
??0FzOR@@QAE@AAVFuzzyTerm@@000@Z PROC			; FzOR::FzOR
; _this$ = ecx

; 124  : {

	push	ebp
	mov	ebp, esp
	push	-1
	push	__ehhandler$??0FzOR@@QAE@AAVFuzzyTerm@@000@Z
	mov	eax, DWORD PTR fs:0
	push	eax
	sub	esp, 20					; 00000014H
	push	esi
	mov	eax, -858993460				; ccccccccH
	mov	DWORD PTR [ebp-32], eax
	mov	DWORD PTR [ebp-28], eax
	mov	DWORD PTR [ebp-24], eax
	mov	DWORD PTR [ebp-20], eax
	mov	DWORD PTR [ebp-16], eax
	mov	eax, DWORD PTR ___security_cookie
	xor	eax, ebp
	push	eax
	lea	eax, DWORD PTR __$EHRec$[ebp]
	mov	DWORD PTR fs:0, eax
	mov	DWORD PTR _this$[ebp], ecx
	mov	ecx, DWORD PTR _this$[ebp]
	call	??0FuzzyTerm@@QAE@XZ
	mov	DWORD PTR __$EHRec$[ebp+8], 0
	mov	eax, DWORD PTR _this$[ebp]
	mov	DWORD PTR [eax], OFFSET ??_7FzOR@@6B@
	mov	ecx, DWORD PTR _this$[ebp]
	add	ecx, 4
	call	??0?$vector@PAVFuzzyTerm@@V?$allocator@PAVFuzzyTerm@@@std@@@std@@QAE@XZ ; std::vector<FuzzyTerm *,std::allocator<FuzzyTerm *> >::vector<FuzzyTerm *,std::allocator<FuzzyTerm *> >
	mov	BYTE PTR __$EHRec$[ebp+8], 1

; 125  :    m_Terms.push_back(op1.Clone());

	mov	ecx, DWORD PTR _op1$[ebp]
	mov	edx, DWORD PTR [ecx]
	mov	esi, esp
	mov	ecx, DWORD PTR _op1$[ebp]
	mov	eax, DWORD PTR [edx+4]
	call	eax
	cmp	esi, esp
	call	__RTC_CheckEsp
	mov	DWORD PTR $T5[ebp], eax
	lea	ecx, DWORD PTR $T5[ebp]
	push	ecx
	mov	ecx, DWORD PTR _this$[ebp]
	add	ecx, 4
	call	?push_back@?$vector@PAVFuzzyTerm@@V?$allocator@PAVFuzzyTerm@@@std@@@std@@QAEX$$QAPAVFuzzyTerm@@@Z ; std::vector<FuzzyTerm *,std::allocator<FuzzyTerm *> >::push_back
	npad	1

; 126  :    m_Terms.push_back(op2.Clone());

	mov	edx, DWORD PTR _op2$[ebp]
	mov	eax, DWORD PTR [edx]
	mov	esi, esp
	mov	ecx, DWORD PTR _op2$[ebp]
	mov	edx, DWORD PTR [eax+4]
	call	edx
	cmp	esi, esp
	call	__RTC_CheckEsp
	mov	DWORD PTR $T4[ebp], eax
	lea	eax, DWORD PTR $T4[ebp]
	push	eax
	mov	ecx, DWORD PTR _this$[ebp]
	add	ecx, 4
	call	?push_back@?$vector@PAVFuzzyTerm@@V?$allocator@PAVFuzzyTerm@@@std@@@std@@QAEX$$QAPAVFuzzyTerm@@@Z ; std::vector<FuzzyTerm *,std::allocator<FuzzyTerm *> >::push_back
	npad	1

; 127  :    m_Terms.push_back(op3.Clone());

	mov	ecx, DWORD PTR _op3$[ebp]
	mov	edx, DWORD PTR [ecx]
	mov	esi, esp
	mov	ecx, DWORD PTR _op3$[ebp]
	mov	eax, DWORD PTR [edx+4]
	call	eax
	cmp	esi, esp
	call	__RTC_CheckEsp
	mov	DWORD PTR $T3[ebp], eax
	lea	ecx, DWORD PTR $T3[ebp]
	push	ecx
	mov	ecx, DWORD PTR _this$[ebp]
	add	ecx, 4
	call	?push_back@?$vector@PAVFuzzyTerm@@V?$allocator@PAVFuzzyTerm@@@std@@@std@@QAEX$$QAPAVFuzzyTerm@@@Z ; std::vector<FuzzyTerm *,std::allocator<FuzzyTerm *> >::push_back
	npad	1

; 128  :    m_Terms.push_back(op4.Clone());

	mov	edx, DWORD PTR _op4$[ebp]
	mov	eax, DWORD PTR [edx]
	mov	esi, esp
	mov	ecx, DWORD PTR _op4$[ebp]
	mov	edx, DWORD PTR [eax+4]
	call	edx
	cmp	esi, esp
	call	__RTC_CheckEsp
	mov	DWORD PTR $T2[ebp], eax
	lea	eax, DWORD PTR $T2[ebp]
	push	eax
	mov	ecx, DWORD PTR _this$[ebp]
	add	ecx, 4
	call	?push_back@?$vector@PAVFuzzyTerm@@V?$allocator@PAVFuzzyTerm@@@std@@@std@@QAEX$$QAPAVFuzzyTerm@@@Z ; std::vector<FuzzyTerm *,std::allocator<FuzzyTerm *> >::push_back
	npad	1

; 129  : }

	mov	DWORD PTR __$EHRec$[ebp+8], -1
	mov	eax, DWORD PTR _this$[ebp]
	mov	ecx, DWORD PTR __$EHRec$[ebp]
	mov	DWORD PTR fs:0, ecx
	pop	ecx
	pop	esi
	add	esp, 32					; 00000020H
	cmp	ebp, esp
	call	__RTC_CheckEsp
	mov	esp, ebp
	pop	ebp
	ret	16					; 00000010H
_TEXT	ENDS
text$x	SEGMENT
__unwindfunclet$??0FzOR@@QAE@AAVFuzzyTerm@@000@Z$0:
	mov	ecx, DWORD PTR _this$[ebp]
	jmp	??1FuzzyTerm@@UAE@XZ			; FuzzyTerm::~FuzzyTerm
__unwindfunclet$??0FzOR@@QAE@AAVFuzzyTerm@@000@Z$1:
	mov	ecx, DWORD PTR _this$[ebp]
	add	ecx, 4
	jmp	??1?$vector@PAVFuzzyTerm@@V?$allocator@PAVFuzzyTerm@@@std@@@std@@QAE@XZ ; std::vector<FuzzyTerm *,std::allocator<FuzzyTerm *> >::~vector<FuzzyTerm *,std::allocator<FuzzyTerm *> >
	int	3
	int	3
	int	3
	int	3
	int	3
__ehhandler$??0FzOR@@QAE@AAVFuzzyTerm@@000@Z:
	npad	1
	npad	1
	mov	edx, DWORD PTR [esp+8]
	lea	eax, DWORD PTR [edx+12]
	mov	ecx, DWORD PTR [edx-28]
	xor	ecx, eax
	call	@__security_check_cookie@4
	mov	eax, OFFSET __ehfuncinfo$??0FzOR@@QAE@AAVFuzzyTerm@@000@Z
	jmp	___CxxFrameHandler3
text$x	ENDS
??0FzOR@@QAE@AAVFuzzyTerm@@000@Z ENDP			; FzOR::FzOR
; Function compile flags: /Odtp /RTCsu
; File C:\Users\rpg26\OneDrive\Desktop\Source\VS2010\Common\fuzzy\FuzzyOperators.cpp
_TEXT	SEGMENT
$T2 = -28						; size = 4
$T3 = -24						; size = 4
$T4 = -20						; size = 4
_this$ = -16						; size = 4
__$EHRec$ = -12						; size = 12
_op1$ = 8						; size = 4
_op2$ = 12						; size = 4
_op3$ = 16						; size = 4
??0FzOR@@QAE@AAVFuzzyTerm@@00@Z PROC			; FzOR::FzOR
; _this$ = ecx

; 116  : {

	push	ebp
	mov	ebp, esp
	push	-1
	push	__ehhandler$??0FzOR@@QAE@AAVFuzzyTerm@@00@Z
	mov	eax, DWORD PTR fs:0
	push	eax
	sub	esp, 16					; 00000010H
	push	esi
	mov	eax, -858993460				; ccccccccH
	mov	DWORD PTR [ebp-28], eax
	mov	DWORD PTR [ebp-24], eax
	mov	DWORD PTR [ebp-20], eax
	mov	DWORD PTR [ebp-16], eax
	mov	eax, DWORD PTR ___security_cookie
	xor	eax, ebp
	push	eax
	lea	eax, DWORD PTR __$EHRec$[ebp]
	mov	DWORD PTR fs:0, eax
	mov	DWORD PTR _this$[ebp], ecx
	mov	ecx, DWORD PTR _this$[ebp]
	call	??0FuzzyTerm@@QAE@XZ
	mov	DWORD PTR __$EHRec$[ebp+8], 0
	mov	eax, DWORD PTR _this$[ebp]
	mov	DWORD PTR [eax], OFFSET ??_7FzOR@@6B@
	mov	ecx, DWORD PTR _this$[ebp]
	add	ecx, 4
	call	??0?$vector@PAVFuzzyTerm@@V?$allocator@PAVFuzzyTerm@@@std@@@std@@QAE@XZ ; std::vector<FuzzyTerm *,std::allocator<FuzzyTerm *> >::vector<FuzzyTerm *,std::allocator<FuzzyTerm *> >
	mov	BYTE PTR __$EHRec$[ebp+8], 1

; 117  :    m_Terms.push_back(op1.Clone());

	mov	ecx, DWORD PTR _op1$[ebp]
	mov	edx, DWORD PTR [ecx]
	mov	esi, esp
	mov	ecx, DWORD PTR _op1$[ebp]
	mov	eax, DWORD PTR [edx+4]
	call	eax
	cmp	esi, esp
	call	__RTC_CheckEsp
	mov	DWORD PTR $T4[ebp], eax
	lea	ecx, DWORD PTR $T4[ebp]
	push	ecx
	mov	ecx, DWORD PTR _this$[ebp]
	add	ecx, 4
	call	?push_back@?$vector@PAVFuzzyTerm@@V?$allocator@PAVFuzzyTerm@@@std@@@std@@QAEX$$QAPAVFuzzyTerm@@@Z ; std::vector<FuzzyTerm *,std::allocator<FuzzyTerm *> >::push_back
	npad	1

; 118  :    m_Terms.push_back(op2.Clone());

	mov	edx, DWORD PTR _op2$[ebp]
	mov	eax, DWORD PTR [edx]
	mov	esi, esp
	mov	ecx, DWORD PTR _op2$[ebp]
	mov	edx, DWORD PTR [eax+4]
	call	edx
	cmp	esi, esp
	call	__RTC_CheckEsp
	mov	DWORD PTR $T3[ebp], eax
	lea	eax, DWORD PTR $T3[ebp]
	push	eax
	mov	ecx, DWORD PTR _this$[ebp]
	add	ecx, 4
	call	?push_back@?$vector@PAVFuzzyTerm@@V?$allocator@PAVFuzzyTerm@@@std@@@std@@QAEX$$QAPAVFuzzyTerm@@@Z ; std::vector<FuzzyTerm *,std::allocator<FuzzyTerm *> >::push_back
	npad	1

; 119  :    m_Terms.push_back(op3.Clone());

	mov	ecx, DWORD PTR _op3$[ebp]
	mov	edx, DWORD PTR [ecx]
	mov	esi, esp
	mov	ecx, DWORD PTR _op3$[ebp]
	mov	eax, DWORD PTR [edx+4]
	call	eax
	cmp	esi, esp
	call	__RTC_CheckEsp
	mov	DWORD PTR $T2[ebp], eax
	lea	ecx, DWORD PTR $T2[ebp]
	push	ecx
	mov	ecx, DWORD PTR _this$[ebp]
	add	ecx, 4
	call	?push_back@?$vector@PAVFuzzyTerm@@V?$allocator@PAVFuzzyTerm@@@std@@@std@@QAEX$$QAPAVFuzzyTerm@@@Z ; std::vector<FuzzyTerm *,std::allocator<FuzzyTerm *> >::push_back
	npad	1

; 120  : }

	mov	DWORD PTR __$EHRec$[ebp+8], -1
	mov	eax, DWORD PTR _this$[ebp]
	mov	ecx, DWORD PTR __$EHRec$[ebp]
	mov	DWORD PTR fs:0, ecx
	pop	ecx
	pop	esi
	add	esp, 28					; 0000001cH
	cmp	ebp, esp
	call	__RTC_CheckEsp
	mov	esp, ebp
	pop	ebp
	ret	12					; 0000000cH
_TEXT	ENDS
text$x	SEGMENT
__unwindfunclet$??0FzOR@@QAE@AAVFuzzyTerm@@00@Z$0:
	mov	ecx, DWORD PTR _this$[ebp]
	jmp	??1FuzzyTerm@@UAE@XZ			; FuzzyTerm::~FuzzyTerm
__unwindfunclet$??0FzOR@@QAE@AAVFuzzyTerm@@00@Z$1:
	mov	ecx, DWORD PTR _this$[ebp]
	add	ecx, 4
	jmp	??1?$vector@PAVFuzzyTerm@@V?$allocator@PAVFuzzyTerm@@@std@@@std@@QAE@XZ ; std::vector<FuzzyTerm *,std::allocator<FuzzyTerm *> >::~vector<FuzzyTerm *,std::allocator<FuzzyTerm *> >
	int	3
	int	3
	int	3
	int	3
	int	3
__ehhandler$??0FzOR@@QAE@AAVFuzzyTerm@@00@Z:
	npad	1
	npad	1
	mov	edx, DWORD PTR [esp+8]
	lea	eax, DWORD PTR [edx+12]
	mov	ecx, DWORD PTR [edx-24]
	xor	ecx, eax
	call	@__security_check_cookie@4
	mov	eax, OFFSET __ehfuncinfo$??0FzOR@@QAE@AAVFuzzyTerm@@00@Z
	jmp	___CxxFrameHandler3
text$x	ENDS
??0FzOR@@QAE@AAVFuzzyTerm@@00@Z ENDP			; FzOR::FzOR
; Function compile flags: /Odtp /RTCsu
; File C:\Users\rpg26\OneDrive\Desktop\Source\VS2010\Common\fuzzy\FuzzyOperators.cpp
_TEXT	SEGMENT
$T2 = -24						; size = 4
$T3 = -20						; size = 4
_this$ = -16						; size = 4
__$EHRec$ = -12						; size = 12
_op1$ = 8						; size = 4
_op2$ = 12						; size = 4
??0FzOR@@QAE@AAVFuzzyTerm@@0@Z PROC			; FzOR::FzOR
; _this$ = ecx

; 109  : {

	push	ebp
	mov	ebp, esp
	push	-1
	push	__ehhandler$??0FzOR@@QAE@AAVFuzzyTerm@@0@Z
	mov	eax, DWORD PTR fs:0
	push	eax
	sub	esp, 12					; 0000000cH
	push	esi
	mov	DWORD PTR [ebp-24], -858993460		; ccccccccH
	mov	DWORD PTR [ebp-20], -858993460		; ccccccccH
	mov	DWORD PTR [ebp-16], -858993460		; ccccccccH
	mov	eax, DWORD PTR ___security_cookie
	xor	eax, ebp
	push	eax
	lea	eax, DWORD PTR __$EHRec$[ebp]
	mov	DWORD PTR fs:0, eax
	mov	DWORD PTR _this$[ebp], ecx
	mov	ecx, DWORD PTR _this$[ebp]
	call	??0FuzzyTerm@@QAE@XZ
	mov	DWORD PTR __$EHRec$[ebp+8], 0
	mov	eax, DWORD PTR _this$[ebp]
	mov	DWORD PTR [eax], OFFSET ??_7FzOR@@6B@
	mov	ecx, DWORD PTR _this$[ebp]
	add	ecx, 4
	call	??0?$vector@PAVFuzzyTerm@@V?$allocator@PAVFuzzyTerm@@@std@@@std@@QAE@XZ ; std::vector<FuzzyTerm *,std::allocator<FuzzyTerm *> >::vector<FuzzyTerm *,std::allocator<FuzzyTerm *> >
	mov	BYTE PTR __$EHRec$[ebp+8], 1

; 110  :    m_Terms.push_back(op1.Clone());

	mov	ecx, DWORD PTR _op1$[ebp]
	mov	edx, DWORD PTR [ecx]
	mov	esi, esp
	mov	ecx, DWORD PTR _op1$[ebp]
	mov	eax, DWORD PTR [edx+4]
	call	eax
	cmp	esi, esp
	call	__RTC_CheckEsp
	mov	DWORD PTR $T3[ebp], eax
	lea	ecx, DWORD PTR $T3[ebp]
	push	ecx
	mov	ecx, DWORD PTR _this$[ebp]
	add	ecx, 4
	call	?push_back@?$vector@PAVFuzzyTerm@@V?$allocator@PAVFuzzyTerm@@@std@@@std@@QAEX$$QAPAVFuzzyTerm@@@Z ; std::vector<FuzzyTerm *,std::allocator<FuzzyTerm *> >::push_back
	npad	1

; 111  :    m_Terms.push_back(op2.Clone());

	mov	edx, DWORD PTR _op2$[ebp]
	mov	eax, DWORD PTR [edx]
	mov	esi, esp
	mov	ecx, DWORD PTR _op2$[ebp]
	mov	edx, DWORD PTR [eax+4]
	call	edx
	cmp	esi, esp
	call	__RTC_CheckEsp
	mov	DWORD PTR $T2[ebp], eax
	lea	eax, DWORD PTR $T2[ebp]
	push	eax
	mov	ecx, DWORD PTR _this$[ebp]
	add	ecx, 4
	call	?push_back@?$vector@PAVFuzzyTerm@@V?$allocator@PAVFuzzyTerm@@@std@@@std@@QAEX$$QAPAVFuzzyTerm@@@Z ; std::vector<FuzzyTerm *,std::allocator<FuzzyTerm *> >::push_back
	npad	1

; 112  : }

	mov	DWORD PTR __$EHRec$[ebp+8], -1
	mov	eax, DWORD PTR _this$[ebp]
	mov	ecx, DWORD PTR __$EHRec$[ebp]
	mov	DWORD PTR fs:0, ecx
	pop	ecx
	pop	esi
	add	esp, 24					; 00000018H
	cmp	ebp, esp
	call	__RTC_CheckEsp
	mov	esp, ebp
	pop	ebp
	ret	8
_TEXT	ENDS
text$x	SEGMENT
__unwindfunclet$??0FzOR@@QAE@AAVFuzzyTerm@@0@Z$0:
	mov	ecx, DWORD PTR _this$[ebp]
	jmp	??1FuzzyTerm@@UAE@XZ			; FuzzyTerm::~FuzzyTerm
__unwindfunclet$??0FzOR@@QAE@AAVFuzzyTerm@@0@Z$1:
	mov	ecx, DWORD PTR _this$[ebp]
	add	ecx, 4
	jmp	??1?$vector@PAVFuzzyTerm@@V?$allocator@PAVFuzzyTerm@@@std@@@std@@QAE@XZ ; std::vector<FuzzyTerm *,std::allocator<FuzzyTerm *> >::~vector<FuzzyTerm *,std::allocator<FuzzyTerm *> >
	int	3
	int	3
	int	3
	int	3
	int	3
__ehhandler$??0FzOR@@QAE@AAVFuzzyTerm@@0@Z:
	npad	1
	npad	1
	mov	edx, DWORD PTR [esp+8]
	lea	eax, DWORD PTR [edx+12]
	mov	ecx, DWORD PTR [edx-20]
	xor	ecx, eax
	call	@__security_check_cookie@4
	mov	eax, OFFSET __ehfuncinfo$??0FzOR@@QAE@AAVFuzzyTerm@@0@Z
	jmp	___CxxFrameHandler3
text$x	ENDS
??0FzOR@@QAE@AAVFuzzyTerm@@0@Z ENDP			; FzOR::FzOR
; Function compile flags: /Odtp /RTCsu
; File C:\Users\rpg26\OneDrive\Desktop\Source\VS2010\Common\fuzzy\FuzzyOperators.cpp
_TEXT	SEGMENT
tv146 = -80						; size = 4
tv158 = -76						; size = 4
tv156 = -72						; size = 4
$T2 = -68						; size = 4
$T3 = -64						; size = 12
$T4 = -49						; size = 1
$T5 = -48						; size = 12
_curTerm$ = -32						; size = 12
_this$ = -16						; size = 4
__$EHRec$ = -12						; size = 12
_fa$ = 8						; size = 4
??0FzOR@@QAE@ABV0@@Z PROC				; FzOR::FzOR
; _this$ = ecx

; 99   : {

	push	ebp
	mov	ebp, esp
	push	-1
	push	__ehhandler$??0FzOR@@QAE@ABV0@@Z
	mov	eax, DWORD PTR fs:0
	push	eax
	sub	esp, 68					; 00000044H
	push	esi
	push	edi
	push	ecx
	lea	edi, DWORD PTR [ebp-80]
	mov	ecx, 17					; 00000011H
	mov	eax, -858993460				; ccccccccH
	rep stosd
	pop	ecx
	mov	eax, DWORD PTR ___security_cookie
	xor	eax, ebp
	push	eax
	lea	eax, DWORD PTR __$EHRec$[ebp]
	mov	DWORD PTR fs:0, eax
	mov	DWORD PTR _this$[ebp], ecx
	mov	ecx, DWORD PTR _this$[ebp]
	call	??0FuzzyTerm@@QAE@XZ
	mov	DWORD PTR __$EHRec$[ebp+8], 0
	mov	eax, DWORD PTR _this$[ebp]
	mov	DWORD PTR [eax], OFFSET ??_7FzOR@@6B@
	mov	ecx, DWORD PTR _this$[ebp]
	add	ecx, 4
	call	??0?$vector@PAVFuzzyTerm@@V?$allocator@PAVFuzzyTerm@@@std@@@std@@QAE@XZ ; std::vector<FuzzyTerm *,std::allocator<FuzzyTerm *> >::vector<FuzzyTerm *,std::allocator<FuzzyTerm *> >
	mov	BYTE PTR __$EHRec$[ebp+8], 1

; 100  :    std::vector<FuzzyTerm*>::const_iterator curTerm;

	lea	ecx, DWORD PTR _curTerm$[ebp]
	call	??0?$_Vector_const_iterator@V?$_Vector_val@U?$_Simple_types@PAVFuzzyTerm@@@std@@@std@@@std@@QAE@XZ ; std::_Vector_const_iterator<std::_Vector_val<std::_Simple_types<FuzzyTerm *> > >::_Vector_const_iterator<std::_Vector_val<std::_Simple_types<FuzzyTerm *> > >
	mov	BYTE PTR __$EHRec$[ebp+8], 2

; 101  :    for (curTerm = fa.m_Terms.begin(); curTerm != fa.m_Terms.end(); ++curTerm)

	lea	ecx, DWORD PTR $T5[ebp]
	push	ecx
	mov	ecx, DWORD PTR _fa$[ebp]
	add	ecx, 4
	call	?begin@?$vector@PAVFuzzyTerm@@V?$allocator@PAVFuzzyTerm@@@std@@@std@@QBE?AV?$_Vector_const_iterator@V?$_Vector_val@U?$_Simple_types@PAVFuzzyTerm@@@std@@@std@@@2@XZ ; std::vector<FuzzyTerm *,std::allocator<FuzzyTerm *> >::begin
	mov	DWORD PTR tv156[ebp], eax
	mov	edx, DWORD PTR tv156[ebp]
	push	edx
	lea	ecx, DWORD PTR _curTerm$[ebp]
	call	??4?$_Vector_const_iterator@V?$_Vector_val@U?$_Simple_types@PAVFuzzyTerm@@@std@@@std@@@std@@QAEAAV01@$$QAV01@@Z
	lea	ecx, DWORD PTR $T5[ebp]
	call	??1?$_Vector_const_iterator@V?$_Vector_val@U?$_Simple_types@PAVFuzzyTerm@@@std@@@std@@@std@@QAE@XZ
	npad	1
	jmp	SHORT $LN4@FzOR
$LN2@FzOR:
	lea	ecx, DWORD PTR _curTerm$[ebp]
	call	??E?$_Vector_const_iterator@V?$_Vector_val@U?$_Simple_types@PAVFuzzyTerm@@@std@@@std@@@std@@QAEAAV01@XZ ; std::_Vector_const_iterator<std::_Vector_val<std::_Simple_types<FuzzyTerm *> > >::operator++
	npad	1
$LN4@FzOR:
	lea	eax, DWORD PTR $T3[ebp]
	push	eax
	mov	ecx, DWORD PTR _fa$[ebp]
	add	ecx, 4
	call	?end@?$vector@PAVFuzzyTerm@@V?$allocator@PAVFuzzyTerm@@@std@@@std@@QBE?AV?$_Vector_const_iterator@V?$_Vector_val@U?$_Simple_types@PAVFuzzyTerm@@@std@@@std@@@2@XZ ; std::vector<FuzzyTerm *,std::allocator<FuzzyTerm *> >::end
	mov	DWORD PTR tv158[ebp], eax
	mov	ecx, DWORD PTR tv158[ebp]
	push	ecx
	lea	ecx, DWORD PTR _curTerm$[ebp]
	call	??9?$_Vector_const_iterator@V?$_Vector_val@U?$_Simple_types@PAVFuzzyTerm@@@std@@@std@@@std@@QBE_NABV01@@Z ; std::_Vector_const_iterator<std::_Vector_val<std::_Simple_types<FuzzyTerm *> > >::operator!=
	mov	BYTE PTR $T4[ebp], al
	lea	ecx, DWORD PTR $T3[ebp]
	call	??1?$_Vector_const_iterator@V?$_Vector_val@U?$_Simple_types@PAVFuzzyTerm@@@std@@@std@@@std@@QAE@XZ
	movzx	edx, BYTE PTR $T4[ebp]
	test	edx, edx
	je	SHORT $LN3@FzOR

; 102  :    {
; 103  :      m_Terms.push_back((*curTerm)->Clone());

	lea	ecx, DWORD PTR _curTerm$[ebp]
	call	??D?$_Vector_const_iterator@V?$_Vector_val@U?$_Simple_types@PAVFuzzyTerm@@@std@@@std@@@std@@QBEABQAVFuzzyTerm@@XZ ; std::_Vector_const_iterator<std::_Vector_val<std::_Simple_types<FuzzyTerm *> > >::operator*
	mov	eax, DWORD PTR [eax]
	mov	DWORD PTR tv146[ebp], eax
	mov	ecx, DWORD PTR tv146[ebp]
	mov	edx, DWORD PTR [ecx]
	mov	esi, esp
	mov	ecx, DWORD PTR tv146[ebp]
	mov	eax, DWORD PTR [edx+4]
	call	eax
	cmp	esi, esp
	call	__RTC_CheckEsp
	mov	DWORD PTR $T2[ebp], eax
	lea	ecx, DWORD PTR $T2[ebp]
	push	ecx
	mov	ecx, DWORD PTR _this$[ebp]
	add	ecx, 4
	call	?push_back@?$vector@PAVFuzzyTerm@@V?$allocator@PAVFuzzyTerm@@@std@@@std@@QAEX$$QAPAVFuzzyTerm@@@Z ; std::vector<FuzzyTerm *,std::allocator<FuzzyTerm *> >::push_back
	npad	1

; 104  :    }

	jmp	SHORT $LN2@FzOR
$LN3@FzOR:

; 105  : }

	mov	BYTE PTR __$EHRec$[ebp+8], 1
	lea	ecx, DWORD PTR _curTerm$[ebp]
	call	??1?$_Vector_const_iterator@V?$_Vector_val@U?$_Simple_types@PAVFuzzyTerm@@@std@@@std@@@std@@QAE@XZ
	npad	1
	mov	DWORD PTR __$EHRec$[ebp+8], -1
	mov	eax, DWORD PTR _this$[ebp]
	push	edx
	mov	ecx, ebp
	push	eax
	lea	edx, DWORD PTR $LN14@FzOR
	call	@_RTC_CheckStackVars@8
	pop	eax
	pop	edx
	mov	ecx, DWORD PTR __$EHRec$[ebp]
	mov	DWORD PTR fs:0, ecx
	pop	ecx
	pop	edi
	pop	esi
	add	esp, 80					; 00000050H
	cmp	ebp, esp
	call	__RTC_CheckEsp
	mov	esp, ebp
	pop	ebp
	ret	4
	npad	2
$LN14@FzOR:
	DD	1
	DD	$LN13@FzOR
$LN13@FzOR:
	DD	-32					; ffffffe0H
	DD	12					; 0000000cH
	DD	$LN11@FzOR
$LN11@FzOR:
	DB	99					; 00000063H
	DB	117					; 00000075H
	DB	114					; 00000072H
	DB	84					; 00000054H
	DB	101					; 00000065H
	DB	114					; 00000072H
	DB	109					; 0000006dH
	DB	0
_TEXT	ENDS
text$x	SEGMENT
__unwindfunclet$??0FzOR@@QAE@ABV0@@Z$0:
	mov	ecx, DWORD PTR _this$[ebp]
	jmp	??1FuzzyTerm@@UAE@XZ			; FuzzyTerm::~FuzzyTerm
__unwindfunclet$??0FzOR@@QAE@ABV0@@Z$1:
	mov	ecx, DWORD PTR _this$[ebp]
	add	ecx, 4
	jmp	??1?$vector@PAVFuzzyTerm@@V?$allocator@PAVFuzzyTerm@@@std@@@std@@QAE@XZ ; std::vector<FuzzyTerm *,std::allocator<FuzzyTerm *> >::~vector<FuzzyTerm *,std::allocator<FuzzyTerm *> >
__unwindfunclet$??0FzOR@@QAE@ABV0@@Z$2:
	lea	ecx, DWORD PTR _curTerm$[ebp]
	jmp	??1?$_Vector_const_iterator@V?$_Vector_val@U?$_Simple_types@PAVFuzzyTerm@@@std@@@std@@@std@@QAE@XZ
	int	3
	int	3
	int	3
	int	3
	int	3
__ehhandler$??0FzOR@@QAE@ABV0@@Z:
	npad	1
	npad	1
	mov	edx, DWORD PTR [esp+8]
	lea	eax, DWORD PTR [edx+12]
	mov	ecx, DWORD PTR [edx-80]
	xor	ecx, eax
	call	@__security_check_cookie@4
	mov	eax, OFFSET __ehfuncinfo$??0FzOR@@QAE@ABV0@@Z
	jmp	___CxxFrameHandler3
text$x	ENDS
??0FzOR@@QAE@ABV0@@Z ENDP				; FzOR::FzOR
; Function compile flags: /Odtp /RTCsu
; File C:\Users\rpg26\OneDrive\Desktop\Source\VS2010\Common\fuzzy\FuzzyOperators.cpp
_TEXT	SEGMENT
tv147 = -60						; size = 4
$T1 = -56						; size = 4
$T2 = -52						; size = 12
$T3 = -37						; size = 1
$T4 = -36						; size = 12
_curTerm$ = -20						; size = 12
_this$ = -4						; size = 4
??1FzOR@@UAE@XZ PROC					; FzOR::~FzOR
; _this$ = ecx

; 133  : {

	push	ebp
	mov	ebp, esp
	sub	esp, 60					; 0000003cH
	push	esi
	push	edi
	push	ecx
	lea	edi, DWORD PTR [ebp-60]
	mov	ecx, 15					; 0000000fH
	mov	eax, -858993460				; ccccccccH
	rep stosd
	pop	ecx
	mov	DWORD PTR _this$[ebp], ecx
	mov	eax, DWORD PTR _this$[ebp]
	mov	DWORD PTR [eax], OFFSET ??_7FzOR@@6B@

; 134  :   std::vector<FuzzyTerm*>::iterator curTerm;

	lea	ecx, DWORD PTR _curTerm$[ebp]
	call	??0?$_Vector_iterator@V?$_Vector_val@U?$_Simple_types@PAVFuzzyTerm@@@std@@@std@@@std@@QAE@XZ
	npad	1

; 135  :   for (curTerm = m_Terms.begin(); curTerm != m_Terms.end(); ++curTerm)

	lea	ecx, DWORD PTR $T4[ebp]
	push	ecx
	mov	ecx, DWORD PTR _this$[ebp]
	add	ecx, 4
	call	?begin@?$vector@PAVFuzzyTerm@@V?$allocator@PAVFuzzyTerm@@@std@@@std@@QAE?AV?$_Vector_iterator@V?$_Vector_val@U?$_Simple_types@PAVFuzzyTerm@@@std@@@std@@@2@XZ ; std::vector<FuzzyTerm *,std::allocator<FuzzyTerm *> >::begin
	push	eax
	lea	ecx, DWORD PTR _curTerm$[ebp]
	call	??4?$_Vector_iterator@V?$_Vector_val@U?$_Simple_types@PAVFuzzyTerm@@@std@@@std@@@std@@QAEAAV01@$$QAV01@@Z
	lea	ecx, DWORD PTR $T4[ebp]
	call	??1?$_Vector_iterator@V?$_Vector_val@U?$_Simple_types@PAVFuzzyTerm@@@std@@@std@@@std@@QAE@XZ
	npad	1
	jmp	SHORT $LN4@FzOR
$LN2@FzOR:
	lea	ecx, DWORD PTR _curTerm$[ebp]
	call	??E?$_Vector_iterator@V?$_Vector_val@U?$_Simple_types@PAVFuzzyTerm@@@std@@@std@@@std@@QAEAAV01@XZ ; std::_Vector_iterator<std::_Vector_val<std::_Simple_types<FuzzyTerm *> > >::operator++
	npad	1
$LN4@FzOR:
	lea	edx, DWORD PTR $T2[ebp]
	push	edx
	mov	ecx, DWORD PTR _this$[ebp]
	add	ecx, 4
	call	?end@?$vector@PAVFuzzyTerm@@V?$allocator@PAVFuzzyTerm@@@std@@@std@@QAE?AV?$_Vector_iterator@V?$_Vector_val@U?$_Simple_types@PAVFuzzyTerm@@@std@@@std@@@2@XZ ; std::vector<FuzzyTerm *,std::allocator<FuzzyTerm *> >::end
	push	eax
	lea	ecx, DWORD PTR _curTerm$[ebp]
	call	??9?$_Vector_const_iterator@V?$_Vector_val@U?$_Simple_types@PAVFuzzyTerm@@@std@@@std@@@std@@QBE_NABV01@@Z ; std::_Vector_const_iterator<std::_Vector_val<std::_Simple_types<FuzzyTerm *> > >::operator!=
	mov	BYTE PTR $T3[ebp], al
	lea	ecx, DWORD PTR $T2[ebp]
	call	??1?$_Vector_iterator@V?$_Vector_val@U?$_Simple_types@PAVFuzzyTerm@@@std@@@std@@@std@@QAE@XZ
	movzx	eax, BYTE PTR $T3[ebp]
	test	eax, eax
	je	SHORT $LN3@FzOR

; 136  :   {
; 137  :     delete *curTerm;

	lea	ecx, DWORD PTR _curTerm$[ebp]
	call	??D?$_Vector_iterator@V?$_Vector_val@U?$_Simple_types@PAVFuzzyTerm@@@std@@@std@@@std@@QBEAAPAVFuzzyTerm@@XZ ; std::_Vector_iterator<std::_Vector_val<std::_Simple_types<FuzzyTerm *> > >::operator*
	mov	ecx, DWORD PTR [eax]
	mov	DWORD PTR $T1[ebp], ecx
	cmp	DWORD PTR $T1[ebp], 0
	je	SHORT $LN6@FzOR
	mov	esi, esp
	push	1
	mov	edx, DWORD PTR $T1[ebp]
	mov	eax, DWORD PTR [edx]
	mov	ecx, DWORD PTR $T1[ebp]
	mov	edx, DWORD PTR [eax]
	call	edx
	cmp	esi, esp
	call	__RTC_CheckEsp
	mov	DWORD PTR tv147[ebp], eax
	jmp	SHORT $LN7@FzOR
$LN6@FzOR:
	mov	DWORD PTR tv147[ebp], 0
$LN7@FzOR:

; 138  :   }

	jmp	SHORT $LN2@FzOR
$LN3@FzOR:

; 139  : }

	lea	ecx, DWORD PTR _curTerm$[ebp]
	call	??1?$_Vector_iterator@V?$_Vector_val@U?$_Simple_types@PAVFuzzyTerm@@@std@@@std@@@std@@QAE@XZ
	npad	1
	mov	ecx, DWORD PTR _this$[ebp]
	add	ecx, 4
	call	??1?$vector@PAVFuzzyTerm@@V?$allocator@PAVFuzzyTerm@@@std@@@std@@QAE@XZ ; std::vector<FuzzyTerm *,std::allocator<FuzzyTerm *> >::~vector<FuzzyTerm *,std::allocator<FuzzyTerm *> >
	mov	ecx, DWORD PTR _this$[ebp]
	call	??1FuzzyTerm@@UAE@XZ			; FuzzyTerm::~FuzzyTerm
	npad	1
	push	edx
	mov	ecx, ebp
	push	eax
	lea	edx, DWORD PTR $LN11@FzOR
	call	@_RTC_CheckStackVars@8
	pop	eax
	pop	edx
	pop	edi
	pop	esi
	add	esp, 60					; 0000003cH
	cmp	ebp, esp
	call	__RTC_CheckEsp
	mov	esp, ebp
	pop	ebp
	ret	0
	npad	1
$LN11@FzOR:
	DD	1
	DD	$LN10@FzOR
$LN10@FzOR:
	DD	-20					; ffffffecH
	DD	12					; 0000000cH
	DD	$LN9@FzOR
$LN9@FzOR:
	DB	99					; 00000063H
	DB	117					; 00000075H
	DB	114					; 00000072H
	DB	84					; 00000054H
	DB	101					; 00000065H
	DB	114					; 00000072H
	DB	109					; 0000006dH
	DB	0
??1FzOR@@UAE@XZ ENDP					; FzOR::~FzOR
_TEXT	ENDS
; Function compile flags: /Odtp /RTCsu
;	COMDAT ??_GFzAND@@UAEPAXI@Z
_TEXT	SEGMENT
_this$ = -4						; size = 4
___flags$ = 8						; size = 4
??_GFzAND@@UAEPAXI@Z PROC				; FzAND::`scalar deleting destructor', COMDAT
; _this$ = ecx
	push	ebp
	mov	ebp, esp
	push	ecx
	mov	DWORD PTR [ebp-4], -858993460		; ccccccccH
	mov	DWORD PTR _this$[ebp], ecx
	mov	ecx, DWORD PTR _this$[ebp]
	call	??1FzAND@@UAE@XZ			; FzAND::~FzAND
	mov	eax, DWORD PTR ___flags$[ebp]
	and	eax, 1
	je	SHORT $LN2@scalar
	push	20					; 00000014H
	mov	ecx, DWORD PTR _this$[ebp]
	push	ecx
	call	??3@YAXPAXI@Z				; operator delete
	add	esp, 8
$LN2@scalar:
	mov	eax, DWORD PTR _this$[ebp]
	add	esp, 4
	cmp	ebp, esp
	call	__RTC_CheckEsp
	mov	esp, ebp
	pop	ebp
	ret	4
??_GFzAND@@UAEPAXI@Z ENDP				; FzAND::`scalar deleting destructor'
_TEXT	ENDS
; Function compile flags: /Odtp /RTCsu
; File C:\Users\rpg26\OneDrive\Desktop\Source\VS2010\Common\fuzzy\FuzzyOperators.cpp
_TEXT	SEGMENT
tv131 = -76						; size = 4
tv139 = -72						; size = 4
tv137 = -68						; size = 4
$T2 = -64						; size = 12
$T3 = -49						; size = 1
$T4 = -48						; size = 12
_curTerm$ = -32						; size = 12
_this$ = -16						; size = 4
__$EHRec$ = -12						; size = 12
_val$ = 8						; size = 8
?ORwithDOM@FzAND@@UAEXN@Z PROC				; FzAND::ORwithDOM
; _this$ = ecx

; 75   : {

	push	ebp
	mov	ebp, esp
	push	-1
	push	__ehhandler$?ORwithDOM@FzAND@@UAEXN@Z
	mov	eax, DWORD PTR fs:0
	push	eax
	sub	esp, 64					; 00000040H
	push	esi
	push	edi
	push	ecx
	lea	edi, DWORD PTR [ebp-76]
	mov	ecx, 16					; 00000010H
	mov	eax, -858993460				; ccccccccH
	rep stosd
	pop	ecx
	mov	eax, DWORD PTR ___security_cookie
	xor	eax, ebp
	push	eax
	lea	eax, DWORD PTR __$EHRec$[ebp]
	mov	DWORD PTR fs:0, eax
	mov	DWORD PTR _this$[ebp], ecx

; 76   :   std::vector<FuzzyTerm*>::iterator curTerm;

	lea	ecx, DWORD PTR _curTerm$[ebp]
	call	??0?$_Vector_iterator@V?$_Vector_val@U?$_Simple_types@PAVFuzzyTerm@@@std@@@std@@@std@@QAE@XZ
	mov	DWORD PTR __$EHRec$[ebp+8], 0

; 77   :   for (curTerm = m_Terms.begin(); curTerm != m_Terms.end(); ++curTerm)

	lea	eax, DWORD PTR $T4[ebp]
	push	eax
	mov	ecx, DWORD PTR _this$[ebp]
	add	ecx, 4
	call	?begin@?$vector@PAVFuzzyTerm@@V?$allocator@PAVFuzzyTerm@@@std@@@std@@QAE?AV?$_Vector_iterator@V?$_Vector_val@U?$_Simple_types@PAVFuzzyTerm@@@std@@@std@@@2@XZ ; std::vector<FuzzyTerm *,std::allocator<FuzzyTerm *> >::begin
	mov	DWORD PTR tv137[ebp], eax
	mov	ecx, DWORD PTR tv137[ebp]
	push	ecx
	lea	ecx, DWORD PTR _curTerm$[ebp]
	call	??4?$_Vector_iterator@V?$_Vector_val@U?$_Simple_types@PAVFuzzyTerm@@@std@@@std@@@std@@QAEAAV01@$$QAV01@@Z
	lea	ecx, DWORD PTR $T4[ebp]
	call	??1?$_Vector_iterator@V?$_Vector_val@U?$_Simple_types@PAVFuzzyTerm@@@std@@@std@@@std@@QAE@XZ
	npad	1
	jmp	SHORT $LN4@ORwithDOM
$LN2@ORwithDOM:
	lea	ecx, DWORD PTR _curTerm$[ebp]
	call	??E?$_Vector_iterator@V?$_Vector_val@U?$_Simple_types@PAVFuzzyTerm@@@std@@@std@@@std@@QAEAAV01@XZ ; std::_Vector_iterator<std::_Vector_val<std::_Simple_types<FuzzyTerm *> > >::operator++
	npad	1
$LN4@ORwithDOM:
	lea	edx, DWORD PTR $T2[ebp]
	push	edx
	mov	ecx, DWORD PTR _this$[ebp]
	add	ecx, 4
	call	?end@?$vector@PAVFuzzyTerm@@V?$allocator@PAVFuzzyTerm@@@std@@@std@@QAE?AV?$_Vector_iterator@V?$_Vector_val@U?$_Simple_types@PAVFuzzyTerm@@@std@@@std@@@2@XZ ; std::vector<FuzzyTerm *,std::allocator<FuzzyTerm *> >::end
	mov	DWORD PTR tv139[ebp], eax
	mov	eax, DWORD PTR tv139[ebp]
	push	eax
	lea	ecx, DWORD PTR _curTerm$[ebp]
	call	??9?$_Vector_const_iterator@V?$_Vector_val@U?$_Simple_types@PAVFuzzyTerm@@@std@@@std@@@std@@QBE_NABV01@@Z ; std::_Vector_const_iterator<std::_Vector_val<std::_Simple_types<FuzzyTerm *> > >::operator!=
	mov	BYTE PTR $T3[ebp], al
	lea	ecx, DWORD PTR $T2[ebp]
	call	??1?$_Vector_iterator@V?$_Vector_val@U?$_Simple_types@PAVFuzzyTerm@@@std@@@std@@@std@@QAE@XZ
	movzx	ecx, BYTE PTR $T3[ebp]
	test	ecx, ecx
	je	SHORT $LN3@ORwithDOM

; 78   :   {
; 79   :     (*curTerm)->ORwithDOM(val);

	lea	ecx, DWORD PTR _curTerm$[ebp]
	call	??D?$_Vector_iterator@V?$_Vector_val@U?$_Simple_types@PAVFuzzyTerm@@@std@@@std@@@std@@QBEAAPAVFuzzyTerm@@XZ ; std::_Vector_iterator<std::_Vector_val<std::_Simple_types<FuzzyTerm *> > >::operator*
	mov	edx, DWORD PTR [eax]
	mov	DWORD PTR tv131[ebp], edx
	mov	esi, esp
	sub	esp, 8
	movsd	xmm0, QWORD PTR _val$[ebp]
	movsd	QWORD PTR [esp], xmm0
	mov	eax, DWORD PTR tv131[ebp]
	mov	edx, DWORD PTR [eax]
	mov	ecx, DWORD PTR tv131[ebp]
	mov	eax, DWORD PTR [edx+16]
	call	eax
	cmp	esi, esp
	call	__RTC_CheckEsp
	npad	1

; 80   :   }

	jmp	SHORT $LN2@ORwithDOM
$LN3@ORwithDOM:

; 81   : }

	mov	DWORD PTR __$EHRec$[ebp+8], -1
	lea	ecx, DWORD PTR _curTerm$[ebp]
	call	??1?$_Vector_iterator@V?$_Vector_val@U?$_Simple_types@PAVFuzzyTerm@@@std@@@std@@@std@@QAE@XZ
	npad	1
	push	edx
	mov	ecx, ebp
	push	eax
	lea	edx, DWORD PTR $LN12@ORwithDOM
	call	@_RTC_CheckStackVars@8
	pop	eax
	pop	edx
	mov	ecx, DWORD PTR __$EHRec$[ebp]
	mov	DWORD PTR fs:0, ecx
	pop	ecx
	pop	edi
	pop	esi
	add	esp, 76					; 0000004cH
	cmp	ebp, esp
	call	__RTC_CheckEsp
	mov	esp, ebp
	pop	ebp
	ret	8
	npad	2
$LN12@ORwithDOM:
	DD	1
	DD	$LN11@ORwithDOM
$LN11@ORwithDOM:
	DD	-32					; ffffffe0H
	DD	12					; 0000000cH
	DD	$LN9@ORwithDOM
$LN9@ORwithDOM:
	DB	99					; 00000063H
	DB	117					; 00000075H
	DB	114					; 00000072H
	DB	84					; 00000054H
	DB	101					; 00000065H
	DB	114					; 00000072H
	DB	109					; 0000006dH
	DB	0
_TEXT	ENDS
text$x	SEGMENT
__unwindfunclet$?ORwithDOM@FzAND@@UAEXN@Z$0:
	lea	ecx, DWORD PTR _curTerm$[ebp]
	jmp	??1?$_Vector_iterator@V?$_Vector_val@U?$_Simple_types@PAVFuzzyTerm@@@std@@@std@@@std@@QAE@XZ
	int	3
	int	3
	int	3
	int	3
	int	3
__ehhandler$?ORwithDOM@FzAND@@UAEXN@Z:
	npad	1
	npad	1
	mov	edx, DWORD PTR [esp+8]
	lea	eax, DWORD PTR [edx+12]
	mov	ecx, DWORD PTR [edx-76]
	xor	ecx, eax
	call	@__security_check_cookie@4
	mov	eax, OFFSET __ehfuncinfo$?ORwithDOM@FzAND@@UAEXN@Z
	jmp	___CxxFrameHandler3
text$x	ENDS
?ORwithDOM@FzAND@@UAEXN@Z ENDP				; FzAND::ORwithDOM
; Function compile flags: /Odtp /RTCsu
; File C:\Users\rpg26\OneDrive\Desktop\Source\VS2010\Common\fuzzy\FuzzyOperators.cpp
_TEXT	SEGMENT
tv131 = -76						; size = 4
tv138 = -72						; size = 4
tv136 = -68						; size = 4
$T2 = -64						; size = 12
$T3 = -49						; size = 1
$T4 = -48						; size = 12
_curTerm$ = -32						; size = 12
_this$ = -16						; size = 4
__$EHRec$ = -12						; size = 12
?ClearDOM@FzAND@@UAEXXZ PROC				; FzAND::ClearDOM
; _this$ = ecx

; 85   : {

	push	ebp
	mov	ebp, esp
	push	-1
	push	__ehhandler$?ClearDOM@FzAND@@UAEXXZ
	mov	eax, DWORD PTR fs:0
	push	eax
	sub	esp, 64					; 00000040H
	push	esi
	push	edi
	push	ecx
	lea	edi, DWORD PTR [ebp-76]
	mov	ecx, 16					; 00000010H
	mov	eax, -858993460				; ccccccccH
	rep stosd
	pop	ecx
	mov	eax, DWORD PTR ___security_cookie
	xor	eax, ebp
	push	eax
	lea	eax, DWORD PTR __$EHRec$[ebp]
	mov	DWORD PTR fs:0, eax
	mov	DWORD PTR _this$[ebp], ecx

; 86   :   std::vector<FuzzyTerm*>::iterator curTerm;

	lea	ecx, DWORD PTR _curTerm$[ebp]
	call	??0?$_Vector_iterator@V?$_Vector_val@U?$_Simple_types@PAVFuzzyTerm@@@std@@@std@@@std@@QAE@XZ
	mov	DWORD PTR __$EHRec$[ebp+8], 0

; 87   :   for (curTerm = m_Terms.begin(); curTerm != m_Terms.end(); ++curTerm)

	lea	eax, DWORD PTR $T4[ebp]
	push	eax
	mov	ecx, DWORD PTR _this$[ebp]
	add	ecx, 4
	call	?begin@?$vector@PAVFuzzyTerm@@V?$allocator@PAVFuzzyTerm@@@std@@@std@@QAE?AV?$_Vector_iterator@V?$_Vector_val@U?$_Simple_types@PAVFuzzyTerm@@@std@@@std@@@2@XZ ; std::vector<FuzzyTerm *,std::allocator<FuzzyTerm *> >::begin
	mov	DWORD PTR tv136[ebp], eax
	mov	ecx, DWORD PTR tv136[ebp]
	push	ecx
	lea	ecx, DWORD PTR _curTerm$[ebp]
	call	??4?$_Vector_iterator@V?$_Vector_val@U?$_Simple_types@PAVFuzzyTerm@@@std@@@std@@@std@@QAEAAV01@$$QAV01@@Z
	lea	ecx, DWORD PTR $T4[ebp]
	call	??1?$_Vector_iterator@V?$_Vector_val@U?$_Simple_types@PAVFuzzyTerm@@@std@@@std@@@std@@QAE@XZ
	npad	1
	jmp	SHORT $LN4@ClearDOM
$LN2@ClearDOM:
	lea	ecx, DWORD PTR _curTerm$[ebp]
	call	??E?$_Vector_iterator@V?$_Vector_val@U?$_Simple_types@PAVFuzzyTerm@@@std@@@std@@@std@@QAEAAV01@XZ ; std::_Vector_iterator<std::_Vector_val<std::_Simple_types<FuzzyTerm *> > >::operator++
	npad	1
$LN4@ClearDOM:
	lea	edx, DWORD PTR $T2[ebp]
	push	edx
	mov	ecx, DWORD PTR _this$[ebp]
	add	ecx, 4
	call	?end@?$vector@PAVFuzzyTerm@@V?$allocator@PAVFuzzyTerm@@@std@@@std@@QAE?AV?$_Vector_iterator@V?$_Vector_val@U?$_Simple_types@PAVFuzzyTerm@@@std@@@std@@@2@XZ ; std::vector<FuzzyTerm *,std::allocator<FuzzyTerm *> >::end
	mov	DWORD PTR tv138[ebp], eax
	mov	eax, DWORD PTR tv138[ebp]
	push	eax
	lea	ecx, DWORD PTR _curTerm$[ebp]
	call	??9?$_Vector_const_iterator@V?$_Vector_val@U?$_Simple_types@PAVFuzzyTerm@@@std@@@std@@@std@@QBE_NABV01@@Z ; std::_Vector_const_iterator<std::_Vector_val<std::_Simple_types<FuzzyTerm *> > >::operator!=
	mov	BYTE PTR $T3[ebp], al
	lea	ecx, DWORD PTR $T2[ebp]
	call	??1?$_Vector_iterator@V?$_Vector_val@U?$_Simple_types@PAVFuzzyTerm@@@std@@@std@@@std@@QAE@XZ
	movzx	ecx, BYTE PTR $T3[ebp]
	test	ecx, ecx
	je	SHORT $LN3@ClearDOM

; 88   :   {
; 89   :     (*curTerm)->ClearDOM();

	lea	ecx, DWORD PTR _curTerm$[ebp]
	call	??D?$_Vector_iterator@V?$_Vector_val@U?$_Simple_types@PAVFuzzyTerm@@@std@@@std@@@std@@QBEAAPAVFuzzyTerm@@XZ ; std::_Vector_iterator<std::_Vector_val<std::_Simple_types<FuzzyTerm *> > >::operator*
	mov	edx, DWORD PTR [eax]
	mov	DWORD PTR tv131[ebp], edx
	mov	eax, DWORD PTR tv131[ebp]
	mov	edx, DWORD PTR [eax]
	mov	esi, esp
	mov	ecx, DWORD PTR tv131[ebp]
	mov	eax, DWORD PTR [edx+12]
	call	eax
	cmp	esi, esp
	call	__RTC_CheckEsp
	npad	1

; 90   :   }

	jmp	SHORT $LN2@ClearDOM
$LN3@ClearDOM:

; 91   : }

	mov	DWORD PTR __$EHRec$[ebp+8], -1
	lea	ecx, DWORD PTR _curTerm$[ebp]
	call	??1?$_Vector_iterator@V?$_Vector_val@U?$_Simple_types@PAVFuzzyTerm@@@std@@@std@@@std@@QAE@XZ
	npad	1
	push	edx
	mov	ecx, ebp
	push	eax
	lea	edx, DWORD PTR $LN12@ClearDOM
	call	@_RTC_CheckStackVars@8
	pop	eax
	pop	edx
	mov	ecx, DWORD PTR __$EHRec$[ebp]
	mov	DWORD PTR fs:0, ecx
	pop	ecx
	pop	edi
	pop	esi
	add	esp, 76					; 0000004cH
	cmp	ebp, esp
	call	__RTC_CheckEsp
	mov	esp, ebp
	pop	ebp
	ret	0
	npad	1
$LN12@ClearDOM:
	DD	1
	DD	$LN11@ClearDOM
$LN11@ClearDOM:
	DD	-32					; ffffffe0H
	DD	12					; 0000000cH
	DD	$LN9@ClearDOM
$LN9@ClearDOM:
	DB	99					; 00000063H
	DB	117					; 00000075H
	DB	114					; 00000072H
	DB	84					; 00000054H
	DB	101					; 00000065H
	DB	114					; 00000072H
	DB	109					; 0000006dH
	DB	0
_TEXT	ENDS
text$x	SEGMENT
__unwindfunclet$?ClearDOM@FzAND@@UAEXXZ$0:
	lea	ecx, DWORD PTR _curTerm$[ebp]
	jmp	??1?$_Vector_iterator@V?$_Vector_val@U?$_Simple_types@PAVFuzzyTerm@@@std@@@std@@@std@@QAE@XZ
	int	3
	int	3
	int	3
	int	3
	int	3
__ehhandler$?ClearDOM@FzAND@@UAEXXZ:
	npad	1
	npad	1
	mov	edx, DWORD PTR [esp+8]
	lea	eax, DWORD PTR [edx+12]
	mov	ecx, DWORD PTR [edx-76]
	xor	ecx, eax
	call	@__security_check_cookie@4
	mov	eax, OFFSET __ehfuncinfo$?ClearDOM@FzAND@@UAEXXZ
	jmp	___CxxFrameHandler3
text$x	ENDS
?ClearDOM@FzAND@@UAEXXZ ENDP				; FzAND::ClearDOM
; Function compile flags: /Odtp /RTCsu
; File C:\Users\rpg26\OneDrive\Desktop\Source\VS2010\Common\fuzzy\FuzzyOperators.cpp
_TEXT	SEGMENT
tv132 = -104						; size = 4
tv163 = -100						; size = 8
tv91 = -92						; size = 4
tv140 = -88						; size = 4
tv138 = -84						; size = 4
$T2 = -80						; size = 8
$T3 = -72						; size = 12
$T4 = -57						; size = 1
$T5 = -56						; size = 12
_curTerm$ = -40						; size = 12
_smallest$ = -24					; size = 8
_this$ = -16						; size = 4
__$EHRec$ = -12						; size = 12
?GetDOM@FzAND@@UBENXZ PROC				; FzAND::GetDOM
; _this$ = ecx

; 57   : {

	push	ebp
	mov	ebp, esp
	push	-1
	push	__ehhandler$?GetDOM@FzAND@@UBENXZ
	mov	eax, DWORD PTR fs:0
	push	eax
	sub	esp, 92					; 0000005cH
	push	esi
	push	edi
	push	ecx
	lea	edi, DWORD PTR [ebp-104]
	mov	ecx, 23					; 00000017H
	mov	eax, -858993460				; ccccccccH
	rep stosd
	pop	ecx
	mov	eax, DWORD PTR ___security_cookie
	xor	eax, ebp
	push	eax
	lea	eax, DWORD PTR __$EHRec$[ebp]
	mov	DWORD PTR fs:0, eax
	mov	DWORD PTR _this$[ebp], ecx

; 58   :   double smallest = MaxDouble;

	movsd	xmm0, QWORD PTR __real@7fefffffffffffff
	movsd	QWORD PTR _smallest$[ebp], xmm0

; 59   : 
; 60   :   std::vector<FuzzyTerm*>::const_iterator curTerm;

	lea	ecx, DWORD PTR _curTerm$[ebp]
	call	??0?$_Vector_const_iterator@V?$_Vector_val@U?$_Simple_types@PAVFuzzyTerm@@@std@@@std@@@std@@QAE@XZ ; std::_Vector_const_iterator<std::_Vector_val<std::_Simple_types<FuzzyTerm *> > >::_Vector_const_iterator<std::_Vector_val<std::_Simple_types<FuzzyTerm *> > >
	mov	DWORD PTR __$EHRec$[ebp+8], 0

; 61   :   for (curTerm = m_Terms.begin(); curTerm != m_Terms.end(); ++curTerm)

	lea	eax, DWORD PTR $T5[ebp]
	push	eax
	mov	ecx, DWORD PTR _this$[ebp]
	add	ecx, 4
	call	?begin@?$vector@PAVFuzzyTerm@@V?$allocator@PAVFuzzyTerm@@@std@@@std@@QBE?AV?$_Vector_const_iterator@V?$_Vector_val@U?$_Simple_types@PAVFuzzyTerm@@@std@@@std@@@2@XZ ; std::vector<FuzzyTerm *,std::allocator<FuzzyTerm *> >::begin
	mov	DWORD PTR tv138[ebp], eax
	mov	ecx, DWORD PTR tv138[ebp]
	push	ecx
	lea	ecx, DWORD PTR _curTerm$[ebp]
	call	??4?$_Vector_const_iterator@V?$_Vector_val@U?$_Simple_types@PAVFuzzyTerm@@@std@@@std@@@std@@QAEAAV01@$$QAV01@@Z
	lea	ecx, DWORD PTR $T5[ebp]
	call	??1?$_Vector_const_iterator@V?$_Vector_val@U?$_Simple_types@PAVFuzzyTerm@@@std@@@std@@@std@@QAE@XZ
	npad	1
	jmp	SHORT $LN4@GetDOM
$LN2@GetDOM:
	lea	ecx, DWORD PTR _curTerm$[ebp]
	call	??E?$_Vector_const_iterator@V?$_Vector_val@U?$_Simple_types@PAVFuzzyTerm@@@std@@@std@@@std@@QAEAAV01@XZ ; std::_Vector_const_iterator<std::_Vector_val<std::_Simple_types<FuzzyTerm *> > >::operator++
	npad	1
$LN4@GetDOM:
	lea	edx, DWORD PTR $T3[ebp]
	push	edx
	mov	ecx, DWORD PTR _this$[ebp]
	add	ecx, 4
	call	?end@?$vector@PAVFuzzyTerm@@V?$allocator@PAVFuzzyTerm@@@std@@@std@@QBE?AV?$_Vector_const_iterator@V?$_Vector_val@U?$_Simple_types@PAVFuzzyTerm@@@std@@@std@@@2@XZ ; std::vector<FuzzyTerm *,std::allocator<FuzzyTerm *> >::end
	mov	DWORD PTR tv140[ebp], eax
	mov	eax, DWORD PTR tv140[ebp]
	push	eax
	lea	ecx, DWORD PTR _curTerm$[ebp]
	call	??9?$_Vector_const_iterator@V?$_Vector_val@U?$_Simple_types@PAVFuzzyTerm@@@std@@@std@@@std@@QBE_NABV01@@Z ; std::_Vector_const_iterator<std::_Vector_val<std::_Simple_types<FuzzyTerm *> > >::operator!=
	mov	BYTE PTR $T4[ebp], al
	lea	ecx, DWORD PTR $T3[ebp]
	call	??1?$_Vector_const_iterator@V?$_Vector_val@U?$_Simple_types@PAVFuzzyTerm@@@std@@@std@@@std@@QAE@XZ
	movzx	ecx, BYTE PTR $T4[ebp]
	test	ecx, ecx
	je	SHORT $LN3@GetDOM

; 62   :   {
; 63   :     if ((*curTerm)->GetDOM() < smallest)

	lea	ecx, DWORD PTR _curTerm$[ebp]
	call	??D?$_Vector_const_iterator@V?$_Vector_val@U?$_Simple_types@PAVFuzzyTerm@@@std@@@std@@@std@@QBEABQAVFuzzyTerm@@XZ ; std::_Vector_const_iterator<std::_Vector_val<std::_Simple_types<FuzzyTerm *> > >::operator*
	mov	edx, DWORD PTR [eax]
	mov	DWORD PTR tv91[ebp], edx
	mov	eax, DWORD PTR tv91[ebp]
	mov	edx, DWORD PTR [eax]
	mov	esi, esp
	mov	ecx, DWORD PTR tv91[ebp]
	mov	eax, DWORD PTR [edx+8]
	call	eax
	cmp	esi, esp
	call	__RTC_CheckEsp
	fstp	QWORD PTR tv163[ebp]
	movsd	xmm0, QWORD PTR _smallest$[ebp]
	comisd	xmm0, QWORD PTR tv163[ebp]
	jbe	SHORT $LN5@GetDOM

; 64   :     {
; 65   :       smallest = (*curTerm)->GetDOM();

	lea	ecx, DWORD PTR _curTerm$[ebp]
	call	??D?$_Vector_const_iterator@V?$_Vector_val@U?$_Simple_types@PAVFuzzyTerm@@@std@@@std@@@std@@QBEABQAVFuzzyTerm@@XZ ; std::_Vector_const_iterator<std::_Vector_val<std::_Simple_types<FuzzyTerm *> > >::operator*
	mov	ecx, DWORD PTR [eax]
	mov	DWORD PTR tv132[ebp], ecx
	mov	edx, DWORD PTR tv132[ebp]
	mov	eax, DWORD PTR [edx]
	mov	esi, esp
	mov	ecx, DWORD PTR tv132[ebp]
	mov	edx, DWORD PTR [eax+8]
	call	edx
	cmp	esi, esp
	call	__RTC_CheckEsp
	fstp	QWORD PTR _smallest$[ebp]
$LN5@GetDOM:

; 66   :     }
; 67   :   }

	jmp	$LN2@GetDOM
$LN3@GetDOM:

; 68   : 
; 69   :   return smallest;

	movsd	xmm0, QWORD PTR _smallest$[ebp]
	movsd	QWORD PTR $T2[ebp], xmm0
	mov	DWORD PTR __$EHRec$[ebp+8], -1
	lea	ecx, DWORD PTR _curTerm$[ebp]
	call	??1?$_Vector_const_iterator@V?$_Vector_val@U?$_Simple_types@PAVFuzzyTerm@@@std@@@std@@@std@@QAE@XZ
	fld	QWORD PTR $T2[ebp]

; 70   : }

	push	edx
	mov	ecx, ebp
	push	eax
	lea	edx, DWORD PTR $LN13@GetDOM
	call	@_RTC_CheckStackVars@8
	pop	eax
	pop	edx
	mov	ecx, DWORD PTR __$EHRec$[ebp]
	mov	DWORD PTR fs:0, ecx
	pop	ecx
	pop	edi
	pop	esi
	add	esp, 104				; 00000068H
	cmp	ebp, esp
	call	__RTC_CheckEsp
	mov	esp, ebp
	pop	ebp
	ret	0
	npad	1
$LN13@GetDOM:
	DD	1
	DD	$LN12@GetDOM
$LN12@GetDOM:
	DD	-40					; ffffffd8H
	DD	12					; 0000000cH
	DD	$LN10@GetDOM
$LN10@GetDOM:
	DB	99					; 00000063H
	DB	117					; 00000075H
	DB	114					; 00000072H
	DB	84					; 00000054H
	DB	101					; 00000065H
	DB	114					; 00000072H
	DB	109					; 0000006dH
	DB	0
_TEXT	ENDS
text$x	SEGMENT
__unwindfunclet$?GetDOM@FzAND@@UBENXZ$0:
	lea	ecx, DWORD PTR _curTerm$[ebp]
	jmp	??1?$_Vector_const_iterator@V?$_Vector_val@U?$_Simple_types@PAVFuzzyTerm@@@std@@@std@@@std@@QAE@XZ
	int	3
	int	3
	int	3
	int	3
	int	3
__ehhandler$?GetDOM@FzAND@@UBENXZ:
	npad	1
	npad	1
	mov	edx, DWORD PTR [esp+8]
	lea	eax, DWORD PTR [edx+12]
	mov	ecx, DWORD PTR [edx-104]
	xor	ecx, eax
	call	@__security_check_cookie@4
	mov	eax, OFFSET __ehfuncinfo$?GetDOM@FzAND@@UBENXZ
	jmp	___CxxFrameHandler3
text$x	ENDS
?GetDOM@FzAND@@UBENXZ ENDP				; FzAND::GetDOM
; Function compile flags: /Odtp /RTCsu
; File C:\Users\rpg26\OneDrive\Desktop\Source\VS2010\Common\fuzzy\FuzzyOperators.h
;	COMDAT ?Clone@FzAND@@UBEPAVFuzzyTerm@@XZ
_TEXT	SEGMENT
tv79 = -28						; size = 4
$T2 = -24						; size = 4
$T3 = -20						; size = 4
_this$ = -16						; size = 4
__$EHRec$ = -12						; size = 12
?Clone@FzAND@@UBEPAVFuzzyTerm@@XZ PROC			; FzAND::Clone, COMDAT
; _this$ = ecx

; 45   :   FuzzyTerm* Clone()const{return new FzAND(*this);}

	push	ebp
	mov	ebp, esp
	push	-1
	push	__ehhandler$?Clone@FzAND@@UBEPAVFuzzyTerm@@XZ
	mov	eax, DWORD PTR fs:0
	push	eax
	sub	esp, 16					; 00000010H
	mov	eax, -858993460				; ccccccccH
	mov	DWORD PTR [ebp-28], eax
	mov	DWORD PTR [ebp-24], eax
	mov	DWORD PTR [ebp-20], eax
	mov	DWORD PTR [ebp-16], eax
	mov	eax, DWORD PTR ___security_cookie
	xor	eax, ebp
	push	eax
	lea	eax, DWORD PTR __$EHRec$[ebp]
	mov	DWORD PTR fs:0, eax
	mov	DWORD PTR _this$[ebp], ecx
	push	20					; 00000014H
	call	??2@YAPAXI@Z				; operator new
	add	esp, 4
	mov	DWORD PTR $T2[ebp], eax
	mov	DWORD PTR __$EHRec$[ebp+8], 0
	cmp	DWORD PTR $T2[ebp], 0
	je	SHORT $LN3@Clone
	mov	eax, DWORD PTR _this$[ebp]
	push	eax
	mov	ecx, DWORD PTR $T2[ebp]
	call	??0FzAND@@QAE@ABV0@@Z			; FzAND::FzAND
	mov	DWORD PTR tv79[ebp], eax
	jmp	SHORT $LN4@Clone
$LN3@Clone:
	mov	DWORD PTR tv79[ebp], 0
$LN4@Clone:
	mov	ecx, DWORD PTR tv79[ebp]
	mov	DWORD PTR $T3[ebp], ecx
	mov	DWORD PTR __$EHRec$[ebp+8], -1
	mov	eax, DWORD PTR $T3[ebp]
	mov	ecx, DWORD PTR __$EHRec$[ebp]
	mov	DWORD PTR fs:0, ecx
	pop	ecx
	add	esp, 28					; 0000001cH
	cmp	ebp, esp
	call	__RTC_CheckEsp
	mov	esp, ebp
	pop	ebp
	ret	0
_TEXT	ENDS
;	COMDAT text$x
text$x	SEGMENT
__unwindfunclet$?Clone@FzAND@@UBEPAVFuzzyTerm@@XZ$0:
	push	20					; 00000014H
	mov	eax, DWORD PTR $T2[ebp]
	push	eax
	call	??3@YAXPAXI@Z				; operator delete
	add	esp, 8
	ret	0
	int	3
	int	3
	int	3
	int	3
	int	3
__ehhandler$?Clone@FzAND@@UBEPAVFuzzyTerm@@XZ:
	npad	1
	npad	1
	mov	edx, DWORD PTR [esp+8]
	lea	eax, DWORD PTR [edx+12]
	mov	ecx, DWORD PTR [edx-20]
	xor	ecx, eax
	call	@__security_check_cookie@4
	mov	eax, OFFSET __ehfuncinfo$?Clone@FzAND@@UBEPAVFuzzyTerm@@XZ
	jmp	___CxxFrameHandler3
text$x	ENDS
?Clone@FzAND@@UBEPAVFuzzyTerm@@XZ ENDP			; FzAND::Clone
; Function compile flags: /Odtp /RTCsu
; File C:\Users\rpg26\OneDrive\Desktop\Source\VS2010\Common\fuzzy\FuzzyOperators.cpp
_TEXT	SEGMENT
$T2 = -32						; size = 4
$T3 = -28						; size = 4
$T4 = -24						; size = 4
$T5 = -20						; size = 4
_this$ = -16						; size = 4
__$EHRec$ = -12						; size = 12
_op1$ = 8						; size = 4
_op2$ = 12						; size = 4
_op3$ = 16						; size = 4
_op4$ = 20						; size = 4
??0FzAND@@QAE@AAVFuzzyTerm@@000@Z PROC			; FzAND::FzAND
; _this$ = ecx

; 34   : {

	push	ebp
	mov	ebp, esp
	push	-1
	push	__ehhandler$??0FzAND@@QAE@AAVFuzzyTerm@@000@Z
	mov	eax, DWORD PTR fs:0
	push	eax
	sub	esp, 20					; 00000014H
	push	esi
	mov	eax, -858993460				; ccccccccH
	mov	DWORD PTR [ebp-32], eax
	mov	DWORD PTR [ebp-28], eax
	mov	DWORD PTR [ebp-24], eax
	mov	DWORD PTR [ebp-20], eax
	mov	DWORD PTR [ebp-16], eax
	mov	eax, DWORD PTR ___security_cookie
	xor	eax, ebp
	push	eax
	lea	eax, DWORD PTR __$EHRec$[ebp]
	mov	DWORD PTR fs:0, eax
	mov	DWORD PTR _this$[ebp], ecx
	mov	ecx, DWORD PTR _this$[ebp]
	call	??0FuzzyTerm@@QAE@XZ
	mov	DWORD PTR __$EHRec$[ebp+8], 0
	mov	eax, DWORD PTR _this$[ebp]
	mov	DWORD PTR [eax], OFFSET ??_7FzAND@@6B@
	mov	ecx, DWORD PTR _this$[ebp]
	add	ecx, 4
	call	??0?$vector@PAVFuzzyTerm@@V?$allocator@PAVFuzzyTerm@@@std@@@std@@QAE@XZ ; std::vector<FuzzyTerm *,std::allocator<FuzzyTerm *> >::vector<FuzzyTerm *,std::allocator<FuzzyTerm *> >
	mov	BYTE PTR __$EHRec$[ebp+8], 1

; 35   :    m_Terms.push_back(op1.Clone());

	mov	ecx, DWORD PTR _op1$[ebp]
	mov	edx, DWORD PTR [ecx]
	mov	esi, esp
	mov	ecx, DWORD PTR _op1$[ebp]
	mov	eax, DWORD PTR [edx+4]
	call	eax
	cmp	esi, esp
	call	__RTC_CheckEsp
	mov	DWORD PTR $T5[ebp], eax
	lea	ecx, DWORD PTR $T5[ebp]
	push	ecx
	mov	ecx, DWORD PTR _this$[ebp]
	add	ecx, 4
	call	?push_back@?$vector@PAVFuzzyTerm@@V?$allocator@PAVFuzzyTerm@@@std@@@std@@QAEX$$QAPAVFuzzyTerm@@@Z ; std::vector<FuzzyTerm *,std::allocator<FuzzyTerm *> >::push_back
	npad	1

; 36   :    m_Terms.push_back(op2.Clone());

	mov	edx, DWORD PTR _op2$[ebp]
	mov	eax, DWORD PTR [edx]
	mov	esi, esp
	mov	ecx, DWORD PTR _op2$[ebp]
	mov	edx, DWORD PTR [eax+4]
	call	edx
	cmp	esi, esp
	call	__RTC_CheckEsp
	mov	DWORD PTR $T4[ebp], eax
	lea	eax, DWORD PTR $T4[ebp]
	push	eax
	mov	ecx, DWORD PTR _this$[ebp]
	add	ecx, 4
	call	?push_back@?$vector@PAVFuzzyTerm@@V?$allocator@PAVFuzzyTerm@@@std@@@std@@QAEX$$QAPAVFuzzyTerm@@@Z ; std::vector<FuzzyTerm *,std::allocator<FuzzyTerm *> >::push_back
	npad	1

; 37   :    m_Terms.push_back(op3.Clone());

	mov	ecx, DWORD PTR _op3$[ebp]
	mov	edx, DWORD PTR [ecx]
	mov	esi, esp
	mov	ecx, DWORD PTR _op3$[ebp]
	mov	eax, DWORD PTR [edx+4]
	call	eax
	cmp	esi, esp
	call	__RTC_CheckEsp
	mov	DWORD PTR $T3[ebp], eax
	lea	ecx, DWORD PTR $T3[ebp]
	push	ecx
	mov	ecx, DWORD PTR _this$[ebp]
	add	ecx, 4
	call	?push_back@?$vector@PAVFuzzyTerm@@V?$allocator@PAVFuzzyTerm@@@std@@@std@@QAEX$$QAPAVFuzzyTerm@@@Z ; std::vector<FuzzyTerm *,std::allocator<FuzzyTerm *> >::push_back
	npad	1

; 38   :    m_Terms.push_back(op4.Clone());

	mov	edx, DWORD PTR _op4$[ebp]
	mov	eax, DWORD PTR [edx]
	mov	esi, esp
	mov	ecx, DWORD PTR _op4$[ebp]
	mov	edx, DWORD PTR [eax+4]
	call	edx
	cmp	esi, esp
	call	__RTC_CheckEsp
	mov	DWORD PTR $T2[ebp], eax
	lea	eax, DWORD PTR $T2[ebp]
	push	eax
	mov	ecx, DWORD PTR _this$[ebp]
	add	ecx, 4
	call	?push_back@?$vector@PAVFuzzyTerm@@V?$allocator@PAVFuzzyTerm@@@std@@@std@@QAEX$$QAPAVFuzzyTerm@@@Z ; std::vector<FuzzyTerm *,std::allocator<FuzzyTerm *> >::push_back
	npad	1

; 39   : }

	mov	DWORD PTR __$EHRec$[ebp+8], -1
	mov	eax, DWORD PTR _this$[ebp]
	mov	ecx, DWORD PTR __$EHRec$[ebp]
	mov	DWORD PTR fs:0, ecx
	pop	ecx
	pop	esi
	add	esp, 32					; 00000020H
	cmp	ebp, esp
	call	__RTC_CheckEsp
	mov	esp, ebp
	pop	ebp
	ret	16					; 00000010H
_TEXT	ENDS
text$x	SEGMENT
__unwindfunclet$??0FzAND@@QAE@AAVFuzzyTerm@@000@Z$0:
	mov	ecx, DWORD PTR _this$[ebp]
	jmp	??1FuzzyTerm@@UAE@XZ			; FuzzyTerm::~FuzzyTerm
__unwindfunclet$??0FzAND@@QAE@AAVFuzzyTerm@@000@Z$1:
	mov	ecx, DWORD PTR _this$[ebp]
	add	ecx, 4
	jmp	??1?$vector@PAVFuzzyTerm@@V?$allocator@PAVFuzzyTerm@@@std@@@std@@QAE@XZ ; std::vector<FuzzyTerm *,std::allocator<FuzzyTerm *> >::~vector<FuzzyTerm *,std::allocator<FuzzyTerm *> >
	int	3
	int	3
	int	3
	int	3
	int	3
__ehhandler$??0FzAND@@QAE@AAVFuzzyTerm@@000@Z:
	npad	1
	npad	1
	mov	edx, DWORD PTR [esp+8]
	lea	eax, DWORD PTR [edx+12]
	mov	ecx, DWORD PTR [edx-28]
	xor	ecx, eax
	call	@__security_check_cookie@4
	mov	eax, OFFSET __ehfuncinfo$??0FzAND@@QAE@AAVFuzzyTerm@@000@Z
	jmp	___CxxFrameHandler3
text$x	ENDS
??0FzAND@@QAE@AAVFuzzyTerm@@000@Z ENDP			; FzAND::FzAND
; Function compile flags: /Odtp /RTCsu
; File C:\Users\rpg26\OneDrive\Desktop\Source\VS2010\Common\fuzzy\FuzzyOperators.cpp
_TEXT	SEGMENT
$T2 = -28						; size = 4
$T3 = -24						; size = 4
$T4 = -20						; size = 4
_this$ = -16						; size = 4
__$EHRec$ = -12						; size = 12
_op1$ = 8						; size = 4
_op2$ = 12						; size = 4
_op3$ = 16						; size = 4
??0FzAND@@QAE@AAVFuzzyTerm@@00@Z PROC			; FzAND::FzAND
; _this$ = ecx

; 26   : {

	push	ebp
	mov	ebp, esp
	push	-1
	push	__ehhandler$??0FzAND@@QAE@AAVFuzzyTerm@@00@Z
	mov	eax, DWORD PTR fs:0
	push	eax
	sub	esp, 16					; 00000010H
	push	esi
	mov	eax, -858993460				; ccccccccH
	mov	DWORD PTR [ebp-28], eax
	mov	DWORD PTR [ebp-24], eax
	mov	DWORD PTR [ebp-20], eax
	mov	DWORD PTR [ebp-16], eax
	mov	eax, DWORD PTR ___security_cookie
	xor	eax, ebp
	push	eax
	lea	eax, DWORD PTR __$EHRec$[ebp]
	mov	DWORD PTR fs:0, eax
	mov	DWORD PTR _this$[ebp], ecx
	mov	ecx, DWORD PTR _this$[ebp]
	call	??0FuzzyTerm@@QAE@XZ
	mov	DWORD PTR __$EHRec$[ebp+8], 0
	mov	eax, DWORD PTR _this$[ebp]
	mov	DWORD PTR [eax], OFFSET ??_7FzAND@@6B@
	mov	ecx, DWORD PTR _this$[ebp]
	add	ecx, 4
	call	??0?$vector@PAVFuzzyTerm@@V?$allocator@PAVFuzzyTerm@@@std@@@std@@QAE@XZ ; std::vector<FuzzyTerm *,std::allocator<FuzzyTerm *> >::vector<FuzzyTerm *,std::allocator<FuzzyTerm *> >
	mov	BYTE PTR __$EHRec$[ebp+8], 1

; 27   :    m_Terms.push_back(op1.Clone());

	mov	ecx, DWORD PTR _op1$[ebp]
	mov	edx, DWORD PTR [ecx]
	mov	esi, esp
	mov	ecx, DWORD PTR _op1$[ebp]
	mov	eax, DWORD PTR [edx+4]
	call	eax
	cmp	esi, esp
	call	__RTC_CheckEsp
	mov	DWORD PTR $T4[ebp], eax
	lea	ecx, DWORD PTR $T4[ebp]
	push	ecx
	mov	ecx, DWORD PTR _this$[ebp]
	add	ecx, 4
	call	?push_back@?$vector@PAVFuzzyTerm@@V?$allocator@PAVFuzzyTerm@@@std@@@std@@QAEX$$QAPAVFuzzyTerm@@@Z ; std::vector<FuzzyTerm *,std::allocator<FuzzyTerm *> >::push_back
	npad	1

; 28   :    m_Terms.push_back(op2.Clone());

	mov	edx, DWORD PTR _op2$[ebp]
	mov	eax, DWORD PTR [edx]
	mov	esi, esp
	mov	ecx, DWORD PTR _op2$[ebp]
	mov	edx, DWORD PTR [eax+4]
	call	edx
	cmp	esi, esp
	call	__RTC_CheckEsp
	mov	DWORD PTR $T3[ebp], eax
	lea	eax, DWORD PTR $T3[ebp]
	push	eax
	mov	ecx, DWORD PTR _this$[ebp]
	add	ecx, 4
	call	?push_back@?$vector@PAVFuzzyTerm@@V?$allocator@PAVFuzzyTerm@@@std@@@std@@QAEX$$QAPAVFuzzyTerm@@@Z ; std::vector<FuzzyTerm *,std::allocator<FuzzyTerm *> >::push_back
	npad	1

; 29   :    m_Terms.push_back(op3.Clone());

	mov	ecx, DWORD PTR _op3$[ebp]
	mov	edx, DWORD PTR [ecx]
	mov	esi, esp
	mov	ecx, DWORD PTR _op3$[ebp]
	mov	eax, DWORD PTR [edx+4]
	call	eax
	cmp	esi, esp
	call	__RTC_CheckEsp
	mov	DWORD PTR $T2[ebp], eax
	lea	ecx, DWORD PTR $T2[ebp]
	push	ecx
	mov	ecx, DWORD PTR _this$[ebp]
	add	ecx, 4
	call	?push_back@?$vector@PAVFuzzyTerm@@V?$allocator@PAVFuzzyTerm@@@std@@@std@@QAEX$$QAPAVFuzzyTerm@@@Z ; std::vector<FuzzyTerm *,std::allocator<FuzzyTerm *> >::push_back
	npad	1

; 30   : }

	mov	DWORD PTR __$EHRec$[ebp+8], -1
	mov	eax, DWORD PTR _this$[ebp]
	mov	ecx, DWORD PTR __$EHRec$[ebp]
	mov	DWORD PTR fs:0, ecx
	pop	ecx
	pop	esi
	add	esp, 28					; 0000001cH
	cmp	ebp, esp
	call	__RTC_CheckEsp
	mov	esp, ebp
	pop	ebp
	ret	12					; 0000000cH
_TEXT	ENDS
text$x	SEGMENT
__unwindfunclet$??0FzAND@@QAE@AAVFuzzyTerm@@00@Z$0:
	mov	ecx, DWORD PTR _this$[ebp]
	jmp	??1FuzzyTerm@@UAE@XZ			; FuzzyTerm::~FuzzyTerm
__unwindfunclet$??0FzAND@@QAE@AAVFuzzyTerm@@00@Z$1:
	mov	ecx, DWORD PTR _this$[ebp]
	add	ecx, 4
	jmp	??1?$vector@PAVFuzzyTerm@@V?$allocator@PAVFuzzyTerm@@@std@@@std@@QAE@XZ ; std::vector<FuzzyTerm *,std::allocator<FuzzyTerm *> >::~vector<FuzzyTerm *,std::allocator<FuzzyTerm *> >
	int	3
	int	3
	int	3
	int	3
	int	3
__ehhandler$??0FzAND@@QAE@AAVFuzzyTerm@@00@Z:
	npad	1
	npad	1
	mov	edx, DWORD PTR [esp+8]
	lea	eax, DWORD PTR [edx+12]
	mov	ecx, DWORD PTR [edx-24]
	xor	ecx, eax
	call	@__security_check_cookie@4
	mov	eax, OFFSET __ehfuncinfo$??0FzAND@@QAE@AAVFuzzyTerm@@00@Z
	jmp	___CxxFrameHandler3
text$x	ENDS
??0FzAND@@QAE@AAVFuzzyTerm@@00@Z ENDP			; FzAND::FzAND
; Function compile flags: /Odtp /RTCsu
; File C:\Users\rpg26\OneDrive\Desktop\Source\VS2010\Common\fuzzy\FuzzyOperators.cpp
_TEXT	SEGMENT
$T2 = -24						; size = 4
$T3 = -20						; size = 4
_this$ = -16						; size = 4
__$EHRec$ = -12						; size = 12
_op1$ = 8						; size = 4
_op2$ = 12						; size = 4
??0FzAND@@QAE@AAVFuzzyTerm@@0@Z PROC			; FzAND::FzAND
; _this$ = ecx

; 19   : {

	push	ebp
	mov	ebp, esp
	push	-1
	push	__ehhandler$??0FzAND@@QAE@AAVFuzzyTerm@@0@Z
	mov	eax, DWORD PTR fs:0
	push	eax
	sub	esp, 12					; 0000000cH
	push	esi
	mov	DWORD PTR [ebp-24], -858993460		; ccccccccH
	mov	DWORD PTR [ebp-20], -858993460		; ccccccccH
	mov	DWORD PTR [ebp-16], -858993460		; ccccccccH
	mov	eax, DWORD PTR ___security_cookie
	xor	eax, ebp
	push	eax
	lea	eax, DWORD PTR __$EHRec$[ebp]
	mov	DWORD PTR fs:0, eax
	mov	DWORD PTR _this$[ebp], ecx
	mov	ecx, DWORD PTR _this$[ebp]
	call	??0FuzzyTerm@@QAE@XZ
	mov	DWORD PTR __$EHRec$[ebp+8], 0
	mov	eax, DWORD PTR _this$[ebp]
	mov	DWORD PTR [eax], OFFSET ??_7FzAND@@6B@
	mov	ecx, DWORD PTR _this$[ebp]
	add	ecx, 4
	call	??0?$vector@PAVFuzzyTerm@@V?$allocator@PAVFuzzyTerm@@@std@@@std@@QAE@XZ ; std::vector<FuzzyTerm *,std::allocator<FuzzyTerm *> >::vector<FuzzyTerm *,std::allocator<FuzzyTerm *> >
	mov	BYTE PTR __$EHRec$[ebp+8], 1

; 20   :    m_Terms.push_back(op1.Clone());

	mov	ecx, DWORD PTR _op1$[ebp]
	mov	edx, DWORD PTR [ecx]
	mov	esi, esp
	mov	ecx, DWORD PTR _op1$[ebp]
	mov	eax, DWORD PTR [edx+4]
	call	eax
	cmp	esi, esp
	call	__RTC_CheckEsp
	mov	DWORD PTR $T3[ebp], eax
	lea	ecx, DWORD PTR $T3[ebp]
	push	ecx
	mov	ecx, DWORD PTR _this$[ebp]
	add	ecx, 4
	call	?push_back@?$vector@PAVFuzzyTerm@@V?$allocator@PAVFuzzyTerm@@@std@@@std@@QAEX$$QAPAVFuzzyTerm@@@Z ; std::vector<FuzzyTerm *,std::allocator<FuzzyTerm *> >::push_back
	npad	1

; 21   :    m_Terms.push_back(op2.Clone());

	mov	edx, DWORD PTR _op2$[ebp]
	mov	eax, DWORD PTR [edx]
	mov	esi, esp
	mov	ecx, DWORD PTR _op2$[ebp]
	mov	edx, DWORD PTR [eax+4]
	call	edx
	cmp	esi, esp
	call	__RTC_CheckEsp
	mov	DWORD PTR $T2[ebp], eax
	lea	eax, DWORD PTR $T2[ebp]
	push	eax
	mov	ecx, DWORD PTR _this$[ebp]
	add	ecx, 4
	call	?push_back@?$vector@PAVFuzzyTerm@@V?$allocator@PAVFuzzyTerm@@@std@@@std@@QAEX$$QAPAVFuzzyTerm@@@Z ; std::vector<FuzzyTerm *,std::allocator<FuzzyTerm *> >::push_back
	npad	1

; 22   : }

	mov	DWORD PTR __$EHRec$[ebp+8], -1
	mov	eax, DWORD PTR _this$[ebp]
	mov	ecx, DWORD PTR __$EHRec$[ebp]
	mov	DWORD PTR fs:0, ecx
	pop	ecx
	pop	esi
	add	esp, 24					; 00000018H
	cmp	ebp, esp
	call	__RTC_CheckEsp
	mov	esp, ebp
	pop	ebp
	ret	8
_TEXT	ENDS
text$x	SEGMENT
__unwindfunclet$??0FzAND@@QAE@AAVFuzzyTerm@@0@Z$0:
	mov	ecx, DWORD PTR _this$[ebp]
	jmp	??1FuzzyTerm@@UAE@XZ			; FuzzyTerm::~FuzzyTerm
__unwindfunclet$??0FzAND@@QAE@AAVFuzzyTerm@@0@Z$1:
	mov	ecx, DWORD PTR _this$[ebp]
	add	ecx, 4
	jmp	??1?$vector@PAVFuzzyTerm@@V?$allocator@PAVFuzzyTerm@@@std@@@std@@QAE@XZ ; std::vector<FuzzyTerm *,std::allocator<FuzzyTerm *> >::~vector<FuzzyTerm *,std::allocator<FuzzyTerm *> >
	int	3
	int	3
	int	3
	int	3
	int	3
__ehhandler$??0FzAND@@QAE@AAVFuzzyTerm@@0@Z:
	npad	1
	npad	1
	mov	edx, DWORD PTR [esp+8]
	lea	eax, DWORD PTR [edx+12]
	mov	ecx, DWORD PTR [edx-20]
	xor	ecx, eax
	call	@__security_check_cookie@4
	mov	eax, OFFSET __ehfuncinfo$??0FzAND@@QAE@AAVFuzzyTerm@@0@Z
	jmp	___CxxFrameHandler3
text$x	ENDS
??0FzAND@@QAE@AAVFuzzyTerm@@0@Z ENDP			; FzAND::FzAND
; Function compile flags: /Odtp /RTCsu
; File C:\Users\rpg26\OneDrive\Desktop\Source\VS2010\Common\fuzzy\FuzzyOperators.cpp
_TEXT	SEGMENT
tv146 = -80						; size = 4
tv158 = -76						; size = 4
tv156 = -72						; size = 4
$T2 = -68						; size = 4
$T3 = -64						; size = 12
$T4 = -49						; size = 1
$T5 = -48						; size = 12
_curTerm$ = -32						; size = 12
_this$ = -16						; size = 4
__$EHRec$ = -12						; size = 12
_fa$ = 8						; size = 4
??0FzAND@@QAE@ABV0@@Z PROC				; FzAND::FzAND
; _this$ = ecx

; 9    : {

	push	ebp
	mov	ebp, esp
	push	-1
	push	__ehhandler$??0FzAND@@QAE@ABV0@@Z
	mov	eax, DWORD PTR fs:0
	push	eax
	sub	esp, 68					; 00000044H
	push	esi
	push	edi
	push	ecx
	lea	edi, DWORD PTR [ebp-80]
	mov	ecx, 17					; 00000011H
	mov	eax, -858993460				; ccccccccH
	rep stosd
	pop	ecx
	mov	eax, DWORD PTR ___security_cookie
	xor	eax, ebp
	push	eax
	lea	eax, DWORD PTR __$EHRec$[ebp]
	mov	DWORD PTR fs:0, eax
	mov	DWORD PTR _this$[ebp], ecx
	mov	ecx, DWORD PTR _this$[ebp]
	call	??0FuzzyTerm@@QAE@XZ
	mov	DWORD PTR __$EHRec$[ebp+8], 0
	mov	eax, DWORD PTR _this$[ebp]
	mov	DWORD PTR [eax], OFFSET ??_7FzAND@@6B@
	mov	ecx, DWORD PTR _this$[ebp]
	add	ecx, 4
	call	??0?$vector@PAVFuzzyTerm@@V?$allocator@PAVFuzzyTerm@@@std@@@std@@QAE@XZ ; std::vector<FuzzyTerm *,std::allocator<FuzzyTerm *> >::vector<FuzzyTerm *,std::allocator<FuzzyTerm *> >
	mov	BYTE PTR __$EHRec$[ebp+8], 1

; 10   :    std::vector<FuzzyTerm*>::const_iterator curTerm;

	lea	ecx, DWORD PTR _curTerm$[ebp]
	call	??0?$_Vector_const_iterator@V?$_Vector_val@U?$_Simple_types@PAVFuzzyTerm@@@std@@@std@@@std@@QAE@XZ ; std::_Vector_const_iterator<std::_Vector_val<std::_Simple_types<FuzzyTerm *> > >::_Vector_const_iterator<std::_Vector_val<std::_Simple_types<FuzzyTerm *> > >
	mov	BYTE PTR __$EHRec$[ebp+8], 2

; 11   :    for (curTerm = fa.m_Terms.begin(); curTerm != fa.m_Terms.end(); ++curTerm)

	lea	ecx, DWORD PTR $T5[ebp]
	push	ecx
	mov	ecx, DWORD PTR _fa$[ebp]
	add	ecx, 4
	call	?begin@?$vector@PAVFuzzyTerm@@V?$allocator@PAVFuzzyTerm@@@std@@@std@@QBE?AV?$_Vector_const_iterator@V?$_Vector_val@U?$_Simple_types@PAVFuzzyTerm@@@std@@@std@@@2@XZ ; std::vector<FuzzyTerm *,std::allocator<FuzzyTerm *> >::begin
	mov	DWORD PTR tv156[ebp], eax
	mov	edx, DWORD PTR tv156[ebp]
	push	edx
	lea	ecx, DWORD PTR _curTerm$[ebp]
	call	??4?$_Vector_const_iterator@V?$_Vector_val@U?$_Simple_types@PAVFuzzyTerm@@@std@@@std@@@std@@QAEAAV01@$$QAV01@@Z
	lea	ecx, DWORD PTR $T5[ebp]
	call	??1?$_Vector_const_iterator@V?$_Vector_val@U?$_Simple_types@PAVFuzzyTerm@@@std@@@std@@@std@@QAE@XZ
	npad	1
	jmp	SHORT $LN4@FzAND
$LN2@FzAND:
	lea	ecx, DWORD PTR _curTerm$[ebp]
	call	??E?$_Vector_const_iterator@V?$_Vector_val@U?$_Simple_types@PAVFuzzyTerm@@@std@@@std@@@std@@QAEAAV01@XZ ; std::_Vector_const_iterator<std::_Vector_val<std::_Simple_types<FuzzyTerm *> > >::operator++
	npad	1
$LN4@FzAND:
	lea	eax, DWORD PTR $T3[ebp]
	push	eax
	mov	ecx, DWORD PTR _fa$[ebp]
	add	ecx, 4
	call	?end@?$vector@PAVFuzzyTerm@@V?$allocator@PAVFuzzyTerm@@@std@@@std@@QBE?AV?$_Vector_const_iterator@V?$_Vector_val@U?$_Simple_types@PAVFuzzyTerm@@@std@@@std@@@2@XZ ; std::vector<FuzzyTerm *,std::allocator<FuzzyTerm *> >::end
	mov	DWORD PTR tv158[ebp], eax
	mov	ecx, DWORD PTR tv158[ebp]
	push	ecx
	lea	ecx, DWORD PTR _curTerm$[ebp]
	call	??9?$_Vector_const_iterator@V?$_Vector_val@U?$_Simple_types@PAVFuzzyTerm@@@std@@@std@@@std@@QBE_NABV01@@Z ; std::_Vector_const_iterator<std::_Vector_val<std::_Simple_types<FuzzyTerm *> > >::operator!=
	mov	BYTE PTR $T4[ebp], al
	lea	ecx, DWORD PTR $T3[ebp]
	call	??1?$_Vector_const_iterator@V?$_Vector_val@U?$_Simple_types@PAVFuzzyTerm@@@std@@@std@@@std@@QAE@XZ
	movzx	edx, BYTE PTR $T4[ebp]
	test	edx, edx
	je	SHORT $LN3@FzAND

; 12   :    {
; 13   :      m_Terms.push_back((*curTerm)->Clone());

	lea	ecx, DWORD PTR _curTerm$[ebp]
	call	??D?$_Vector_const_iterator@V?$_Vector_val@U?$_Simple_types@PAVFuzzyTerm@@@std@@@std@@@std@@QBEABQAVFuzzyTerm@@XZ ; std::_Vector_const_iterator<std::_Vector_val<std::_Simple_types<FuzzyTerm *> > >::operator*
	mov	eax, DWORD PTR [eax]
	mov	DWORD PTR tv146[ebp], eax
	mov	ecx, DWORD PTR tv146[ebp]
	mov	edx, DWORD PTR [ecx]
	mov	esi, esp
	mov	ecx, DWORD PTR tv146[ebp]
	mov	eax, DWORD PTR [edx+4]
	call	eax
	cmp	esi, esp
	call	__RTC_CheckEsp
	mov	DWORD PTR $T2[ebp], eax
	lea	ecx, DWORD PTR $T2[ebp]
	push	ecx
	mov	ecx, DWORD PTR _this$[ebp]
	add	ecx, 4
	call	?push_back@?$vector@PAVFuzzyTerm@@V?$allocator@PAVFuzzyTerm@@@std@@@std@@QAEX$$QAPAVFuzzyTerm@@@Z ; std::vector<FuzzyTerm *,std::allocator<FuzzyTerm *> >::push_back
	npad	1

; 14   :    }

	jmp	SHORT $LN2@FzAND
$LN3@FzAND:

; 15   : }

	mov	BYTE PTR __$EHRec$[ebp+8], 1
	lea	ecx, DWORD PTR _curTerm$[ebp]
	call	??1?$_Vector_const_iterator@V?$_Vector_val@U?$_Simple_types@PAVFuzzyTerm@@@std@@@std@@@std@@QAE@XZ
	npad	1
	mov	DWORD PTR __$EHRec$[ebp+8], -1
	mov	eax, DWORD PTR _this$[ebp]
	push	edx
	mov	ecx, ebp
	push	eax
	lea	edx, DWORD PTR $LN14@FzAND
	call	@_RTC_CheckStackVars@8
	pop	eax
	pop	edx
	mov	ecx, DWORD PTR __$EHRec$[ebp]
	mov	DWORD PTR fs:0, ecx
	pop	ecx
	pop	edi
	pop	esi
	add	esp, 80					; 00000050H
	cmp	ebp, esp
	call	__RTC_CheckEsp
	mov	esp, ebp
	pop	ebp
	ret	4
	npad	2
$LN14@FzAND:
	DD	1
	DD	$LN13@FzAND
$LN13@FzAND:
	DD	-32					; ffffffe0H
	DD	12					; 0000000cH
	DD	$LN11@FzAND
$LN11@FzAND:
	DB	99					; 00000063H
	DB	117					; 00000075H
	DB	114					; 00000072H
	DB	84					; 00000054H
	DB	101					; 00000065H
	DB	114					; 00000072H
	DB	109					; 0000006dH
	DB	0
_TEXT	ENDS
text$x	SEGMENT
__unwindfunclet$??0FzAND@@QAE@ABV0@@Z$0:
	mov	ecx, DWORD PTR _this$[ebp]
	jmp	??1FuzzyTerm@@UAE@XZ			; FuzzyTerm::~FuzzyTerm
__unwindfunclet$??0FzAND@@QAE@ABV0@@Z$1:
	mov	ecx, DWORD PTR _this$[ebp]
	add	ecx, 4
	jmp	??1?$vector@PAVFuzzyTerm@@V?$allocator@PAVFuzzyTerm@@@std@@@std@@QAE@XZ ; std::vector<FuzzyTerm *,std::allocator<FuzzyTerm *> >::~vector<FuzzyTerm *,std::allocator<FuzzyTerm *> >
__unwindfunclet$??0FzAND@@QAE@ABV0@@Z$2:
	lea	ecx, DWORD PTR _curTerm$[ebp]
	jmp	??1?$_Vector_const_iterator@V?$_Vector_val@U?$_Simple_types@PAVFuzzyTerm@@@std@@@std@@@std@@QAE@XZ
	int	3
	int	3
	int	3
	int	3
	int	3
__ehhandler$??0FzAND@@QAE@ABV0@@Z:
	npad	1
	npad	1
	mov	edx, DWORD PTR [esp+8]
	lea	eax, DWORD PTR [edx+12]
	mov	ecx, DWORD PTR [edx-80]
	xor	ecx, eax
	call	@__security_check_cookie@4
	mov	eax, OFFSET __ehfuncinfo$??0FzAND@@QAE@ABV0@@Z
	jmp	___CxxFrameHandler3
text$x	ENDS
??0FzAND@@QAE@ABV0@@Z ENDP				; FzAND::FzAND
; Function compile flags: /Odtp /RTCsu
; File C:\Users\rpg26\OneDrive\Desktop\Source\VS2010\Common\fuzzy\FuzzyOperators.cpp
_TEXT	SEGMENT
tv147 = -60						; size = 4
$T1 = -56						; size = 4
$T2 = -52						; size = 12
$T3 = -37						; size = 1
$T4 = -36						; size = 12
_curTerm$ = -20						; size = 12
_this$ = -4						; size = 4
??1FzAND@@UAE@XZ PROC					; FzAND::~FzAND
; _this$ = ecx

; 43   : {

	push	ebp
	mov	ebp, esp
	sub	esp, 60					; 0000003cH
	push	esi
	push	edi
	push	ecx
	lea	edi, DWORD PTR [ebp-60]
	mov	ecx, 15					; 0000000fH
	mov	eax, -858993460				; ccccccccH
	rep stosd
	pop	ecx
	mov	DWORD PTR _this$[ebp], ecx
	mov	eax, DWORD PTR _this$[ebp]
	mov	DWORD PTR [eax], OFFSET ??_7FzAND@@6B@

; 44   :   std::vector<FuzzyTerm*>::iterator curTerm;

	lea	ecx, DWORD PTR _curTerm$[ebp]
	call	??0?$_Vector_iterator@V?$_Vector_val@U?$_Simple_types@PAVFuzzyTerm@@@std@@@std@@@std@@QAE@XZ
	npad	1

; 45   :   for (curTerm = m_Terms.begin(); curTerm != m_Terms.end(); ++curTerm)

	lea	ecx, DWORD PTR $T4[ebp]
	push	ecx
	mov	ecx, DWORD PTR _this$[ebp]
	add	ecx, 4
	call	?begin@?$vector@PAVFuzzyTerm@@V?$allocator@PAVFuzzyTerm@@@std@@@std@@QAE?AV?$_Vector_iterator@V?$_Vector_val@U?$_Simple_types@PAVFuzzyTerm@@@std@@@std@@@2@XZ ; std::vector<FuzzyTerm *,std::allocator<FuzzyTerm *> >::begin
	push	eax
	lea	ecx, DWORD PTR _curTerm$[ebp]
	call	??4?$_Vector_iterator@V?$_Vector_val@U?$_Simple_types@PAVFuzzyTerm@@@std@@@std@@@std@@QAEAAV01@$$QAV01@@Z
	lea	ecx, DWORD PTR $T4[ebp]
	call	??1?$_Vector_iterator@V?$_Vector_val@U?$_Simple_types@PAVFuzzyTerm@@@std@@@std@@@std@@QAE@XZ
	npad	1
	jmp	SHORT $LN4@FzAND
$LN2@FzAND:
	lea	ecx, DWORD PTR _curTerm$[ebp]
	call	??E?$_Vector_iterator@V?$_Vector_val@U?$_Simple_types@PAVFuzzyTerm@@@std@@@std@@@std@@QAEAAV01@XZ ; std::_Vector_iterator<std::_Vector_val<std::_Simple_types<FuzzyTerm *> > >::operator++
	npad	1
$LN4@FzAND:
	lea	edx, DWORD PTR $T2[ebp]
	push	edx
	mov	ecx, DWORD PTR _this$[ebp]
	add	ecx, 4
	call	?end@?$vector@PAVFuzzyTerm@@V?$allocator@PAVFuzzyTerm@@@std@@@std@@QAE?AV?$_Vector_iterator@V?$_Vector_val@U?$_Simple_types@PAVFuzzyTerm@@@std@@@std@@@2@XZ ; std::vector<FuzzyTerm *,std::allocator<FuzzyTerm *> >::end
	push	eax
	lea	ecx, DWORD PTR _curTerm$[ebp]
	call	??9?$_Vector_const_iterator@V?$_Vector_val@U?$_Simple_types@PAVFuzzyTerm@@@std@@@std@@@std@@QBE_NABV01@@Z ; std::_Vector_const_iterator<std::_Vector_val<std::_Simple_types<FuzzyTerm *> > >::operator!=
	mov	BYTE PTR $T3[ebp], al
	lea	ecx, DWORD PTR $T2[ebp]
	call	??1?$_Vector_iterator@V?$_Vector_val@U?$_Simple_types@PAVFuzzyTerm@@@std@@@std@@@std@@QAE@XZ
	movzx	eax, BYTE PTR $T3[ebp]
	test	eax, eax
	je	SHORT $LN3@FzAND

; 46   :   {
; 47   :     delete *curTerm;

	lea	ecx, DWORD PTR _curTerm$[ebp]
	call	??D?$_Vector_iterator@V?$_Vector_val@U?$_Simple_types@PAVFuzzyTerm@@@std@@@std@@@std@@QBEAAPAVFuzzyTerm@@XZ ; std::_Vector_iterator<std::_Vector_val<std::_Simple_types<FuzzyTerm *> > >::operator*
	mov	ecx, DWORD PTR [eax]
	mov	DWORD PTR $T1[ebp], ecx
	cmp	DWORD PTR $T1[ebp], 0
	je	SHORT $LN6@FzAND
	mov	esi, esp
	push	1
	mov	edx, DWORD PTR $T1[ebp]
	mov	eax, DWORD PTR [edx]
	mov	ecx, DWORD PTR $T1[ebp]
	mov	edx, DWORD PTR [eax]
	call	edx
	cmp	esi, esp
	call	__RTC_CheckEsp
	mov	DWORD PTR tv147[ebp], eax
	jmp	SHORT $LN7@FzAND
$LN6@FzAND:
	mov	DWORD PTR tv147[ebp], 0
$LN7@FzAND:

; 48   :   }

	jmp	SHORT $LN2@FzAND
$LN3@FzAND:

; 49   : }

	lea	ecx, DWORD PTR _curTerm$[ebp]
	call	??1?$_Vector_iterator@V?$_Vector_val@U?$_Simple_types@PAVFuzzyTerm@@@std@@@std@@@std@@QAE@XZ
	npad	1
	mov	ecx, DWORD PTR _this$[ebp]
	add	ecx, 4
	call	??1?$vector@PAVFuzzyTerm@@V?$allocator@PAVFuzzyTerm@@@std@@@std@@QAE@XZ ; std::vector<FuzzyTerm *,std::allocator<FuzzyTerm *> >::~vector<FuzzyTerm *,std::allocator<FuzzyTerm *> >
	mov	ecx, DWORD PTR _this$[ebp]
	call	??1FuzzyTerm@@UAE@XZ			; FuzzyTerm::~FuzzyTerm
	npad	1
	push	edx
	mov	ecx, ebp
	push	eax
	lea	edx, DWORD PTR $LN11@FzAND
	call	@_RTC_CheckStackVars@8
	pop	eax
	pop	edx
	pop	edi
	pop	esi
	add	esp, 60					; 0000003cH
	cmp	ebp, esp
	call	__RTC_CheckEsp
	mov	esp, ebp
	pop	ebp
	ret	0
	npad	1
$LN11@FzAND:
	DD	1
	DD	$LN10@FzAND
$LN10@FzAND:
	DD	-20					; ffffffecH
	DD	12					; 0000000cH
	DD	$LN9@FzAND
$LN9@FzAND:
	DB	99					; 00000063H
	DB	117					; 00000075H
	DB	114					; 00000072H
	DB	84					; 00000054H
	DB	101					; 00000065H
	DB	114					; 00000072H
	DB	109					; 0000006dH
	DB	0
??1FzAND@@UAE@XZ ENDP					; FzAND::~FzAND
_TEXT	ENDS
; Function compile flags: /Odtp /RTCsu
; File C:\Program Files\Microsoft Visual Studio\2022\Community\VC\Tools\MSVC\14.42.34433\include\xmemory
;	COMDAT ?_Get_first@?$_Compressed_pair@V?$allocator@PAVFuzzyTerm@@@std@@V?$_Vector_val@U?$_Simple_types@PAVFuzzyTerm@@@std@@@2@$00@std@@QBEABV?$allocator@PAVFuzzyTerm@@@2@XZ
_TEXT	SEGMENT
_this$ = -4						; size = 4
?_Get_first@?$_Compressed_pair@V?$allocator@PAVFuzzyTerm@@@std@@V?$_Vector_val@U?$_Simple_types@PAVFuzzyTerm@@@std@@@2@$00@std@@QBEABV?$allocator@PAVFuzzyTerm@@@2@XZ PROC ; std::_Compressed_pair<std::allocator<FuzzyTerm *>,std::_Vector_val<std::_Simple_types<FuzzyTerm *> >,1>::_Get_first, COMDAT
; _this$ = ecx

; 1506 :     constexpr const _Ty1& _Get_first() const noexcept {

	push	ebp
	mov	ebp, esp
	push	ecx
	mov	DWORD PTR _this$[ebp], ecx

; 1507 :         return *this;

	mov	eax, DWORD PTR _this$[ebp]

; 1508 :     }

	mov	esp, ebp
	pop	ebp
	ret	0
?_Get_first@?$_Compressed_pair@V?$allocator@PAVFuzzyTerm@@@std@@V?$_Vector_val@U?$_Simple_types@PAVFuzzyTerm@@@std@@@2@$00@std@@QBEABV?$allocator@PAVFuzzyTerm@@@2@XZ ENDP ; std::_Compressed_pair<std::allocator<FuzzyTerm *>,std::_Vector_val<std::_Simple_types<FuzzyTerm *> >,1>::_Get_first
_TEXT	ENDS
; Function compile flags: /Odtp /RTCsu
; File C:\Program Files\Microsoft Visual Studio\2022\Community\VC\Tools\MSVC\14.42.34433\include\xmemory
;	COMDAT ?_Get_first@?$_Compressed_pair@V?$allocator@PAVFuzzyTerm@@@std@@V?$_Vector_val@U?$_Simple_types@PAVFuzzyTerm@@@std@@@2@$00@std@@QAEAAV?$allocator@PAVFuzzyTerm@@@2@XZ
_TEXT	SEGMENT
_this$ = -4						; size = 4
?_Get_first@?$_Compressed_pair@V?$allocator@PAVFuzzyTerm@@@std@@V?$_Vector_val@U?$_Simple_types@PAVFuzzyTerm@@@std@@@2@$00@std@@QAEAAV?$allocator@PAVFuzzyTerm@@@2@XZ PROC ; std::_Compressed_pair<std::allocator<FuzzyTerm *>,std::_Vector_val<std::_Simple_types<FuzzyTerm *> >,1>::_Get_first, COMDAT
; _this$ = ecx

; 1502 :     constexpr _Ty1& _Get_first() noexcept {

	push	ebp
	mov	ebp, esp
	push	ecx
	mov	DWORD PTR _this$[ebp], ecx

; 1503 :         return *this;

	mov	eax, DWORD PTR _this$[ebp]

; 1504 :     }

	mov	esp, ebp
	pop	ebp
	ret	0
?_Get_first@?$_Compressed_pair@V?$allocator@PAVFuzzyTerm@@@std@@V?$_Vector_val@U?$_Simple_types@PAVFuzzyTerm@@@std@@@2@$00@std@@QAEAAV?$allocator@PAVFuzzyTerm@@@2@XZ ENDP ; std::_Compressed_pair<std::allocator<FuzzyTerm *>,std::_Vector_val<std::_Simple_types<FuzzyTerm *> >,1>::_Get_first
_TEXT	ENDS
; Function compile flags: /Odtp /RTCsu
; File C:\Program Files\Microsoft Visual Studio\2022\Community\VC\Tools\MSVC\14.42.34433\include\vector
;	COMDAT ??0?$_Vector_val@U?$_Simple_types@PAVFuzzyTerm@@@std@@@std@@QAE@XZ
_TEXT	SEGMENT
_this$ = -4						; size = 4
??0?$_Vector_val@U?$_Simple_types@PAVFuzzyTerm@@@std@@@std@@QAE@XZ PROC ; std::_Vector_val<std::_Simple_types<FuzzyTerm *> >::_Vector_val<std::_Simple_types<FuzzyTerm *> >, COMDAT
; _this$ = ecx

; 400  :     _CONSTEXPR20 _Vector_val() noexcept : _Myfirst(), _Mylast(), _Myend() {}

	push	ebp
	mov	ebp, esp
	push	ecx
	mov	DWORD PTR [ebp-4], -858993460		; ccccccccH
	mov	DWORD PTR _this$[ebp], ecx
	mov	ecx, DWORD PTR _this$[ebp]
	call	??0_Container_base12@std@@QAE@XZ	; std::_Container_base12::_Container_base12
	mov	eax, DWORD PTR _this$[ebp]
	mov	DWORD PTR [eax+4], 0
	mov	ecx, DWORD PTR _this$[ebp]
	mov	DWORD PTR [ecx+8], 0
	mov	edx, DWORD PTR _this$[ebp]
	mov	DWORD PTR [edx+12], 0
	mov	eax, DWORD PTR _this$[ebp]
	add	esp, 4
	cmp	ebp, esp
	call	__RTC_CheckEsp
	mov	esp, ebp
	pop	ebp
	ret	0
??0?$_Vector_val@U?$_Simple_types@PAVFuzzyTerm@@@std@@@std@@QAE@XZ ENDP ; std::_Vector_val<std::_Simple_types<FuzzyTerm *> >::_Vector_val<std::_Simple_types<FuzzyTerm *> >
_TEXT	ENDS
; Function compile flags: /Odtp /RTCsu
; File C:\Program Files\Microsoft Visual Studio\2022\Community\VC\Tools\MSVC\14.42.34433\include\vector
;	COMDAT ?_Getal@?$vector@PAVFuzzyTerm@@V?$allocator@PAVFuzzyTerm@@@std@@@std@@ABEABV?$allocator@PAVFuzzyTerm@@@2@XZ
_TEXT	SEGMENT
_this$ = -4						; size = 4
?_Getal@?$vector@PAVFuzzyTerm@@V?$allocator@PAVFuzzyTerm@@@std@@@std@@ABEABV?$allocator@PAVFuzzyTerm@@@2@XZ PROC ; std::vector<FuzzyTerm *,std::allocator<FuzzyTerm *> >::_Getal, COMDAT
; _this$ = ecx

; 2187 :     _NODISCARD _CONSTEXPR20 const _Alty& _Getal() const noexcept {

	push	ebp
	mov	ebp, esp
	push	ecx
	mov	DWORD PTR [ebp-4], -858993460		; ccccccccH
	mov	DWORD PTR _this$[ebp], ecx

; 2188 :         return _Mypair._Get_first();

	mov	ecx, DWORD PTR _this$[ebp]
	call	?_Get_first@?$_Compressed_pair@V?$allocator@PAVFuzzyTerm@@@std@@V?$_Vector_val@U?$_Simple_types@PAVFuzzyTerm@@@std@@@2@$00@std@@QBEABV?$allocator@PAVFuzzyTerm@@@2@XZ ; std::_Compressed_pair<std::allocator<FuzzyTerm *>,std::_Vector_val<std::_Simple_types<FuzzyTerm *> >,1>::_Get_first

; 2189 :     }

	add	esp, 4
	cmp	ebp, esp
	call	__RTC_CheckEsp
	mov	esp, ebp
	pop	ebp
	ret	0
?_Getal@?$vector@PAVFuzzyTerm@@V?$allocator@PAVFuzzyTerm@@@std@@@std@@ABEABV?$allocator@PAVFuzzyTerm@@@2@XZ ENDP ; std::vector<FuzzyTerm *,std::allocator<FuzzyTerm *> >::_Getal
_TEXT	ENDS
; Function compile flags: /Odtp /RTCsu
; File C:\Program Files\Microsoft Visual Studio\2022\Community\VC\Tools\MSVC\14.42.34433\include\vector
;	COMDAT ?_Getal@?$vector@PAVFuzzyTerm@@V?$allocator@PAVFuzzyTerm@@@std@@@std@@AAEAAV?$allocator@PAVFuzzyTerm@@@2@XZ
_TEXT	SEGMENT
_this$ = -4						; size = 4
?_Getal@?$vector@PAVFuzzyTerm@@V?$allocator@PAVFuzzyTerm@@@std@@@std@@AAEAAV?$allocator@PAVFuzzyTerm@@@2@XZ PROC ; std::vector<FuzzyTerm *,std::allocator<FuzzyTerm *> >::_Getal, COMDAT
; _this$ = ecx

; 2183 :     _NODISCARD _CONSTEXPR20 _Alty& _Getal() noexcept {

	push	ebp
	mov	ebp, esp
	push	ecx
	mov	DWORD PTR [ebp-4], -858993460		; ccccccccH
	mov	DWORD PTR _this$[ebp], ecx

; 2184 :         return _Mypair._Get_first();

	mov	ecx, DWORD PTR _this$[ebp]
	call	?_Get_first@?$_Compressed_pair@V?$allocator@PAVFuzzyTerm@@@std@@V?$_Vector_val@U?$_Simple_types@PAVFuzzyTerm@@@std@@@2@$00@std@@QAEAAV?$allocator@PAVFuzzyTerm@@@2@XZ ; std::_Compressed_pair<std::allocator<FuzzyTerm *>,std::_Vector_val<std::_Simple_types<FuzzyTerm *> >,1>::_Get_first

; 2185 :     }

	add	esp, 4
	cmp	ebp, esp
	call	__RTC_CheckEsp
	mov	esp, ebp
	pop	ebp
	ret	0
?_Getal@?$vector@PAVFuzzyTerm@@V?$allocator@PAVFuzzyTerm@@@std@@@std@@AAEAAV?$allocator@PAVFuzzyTerm@@@2@XZ ENDP ; std::vector<FuzzyTerm *,std::allocator<FuzzyTerm *> >::_Getal
_TEXT	ENDS
; Function compile flags: /Odtp /RTCsu
; File C:\Program Files\Microsoft Visual Studio\2022\Community\VC\Tools\MSVC\14.42.34433\include\vector
;	COMDAT ?_Orphan_range@?$vector@PAVFuzzyTerm@@V?$allocator@PAVFuzzyTerm@@@std@@@std@@ABEXPAPAVFuzzyTerm@@0@Z
_TEXT	SEGMENT
_this$ = -4						; size = 4
__First$ = 8						; size = 4
__Last$ = 12						; size = 4
?_Orphan_range@?$vector@PAVFuzzyTerm@@V?$allocator@PAVFuzzyTerm@@@std@@@std@@ABEXPAPAVFuzzyTerm@@0@Z PROC ; std::vector<FuzzyTerm *,std::allocator<FuzzyTerm *> >::_Orphan_range, COMDAT
; _this$ = ecx

; 2168 :     _CONSTEXPR20 void _Orphan_range(pointer _First, pointer _Last) const {

	push	ebp
	mov	ebp, esp
	push	ecx
	mov	DWORD PTR [ebp-4], -858993460		; ccccccccH
	mov	DWORD PTR _this$[ebp], ecx

; 2169 :         // orphan iterators within specified (inclusive) range
; 2170 : #if _HAS_CXX20
; 2171 :         if (_STD is_constant_evaluated()) {
; 2172 :             _Orphan_range_unlocked(_First, _Last);
; 2173 :         } else
; 2174 : #endif // _HAS_CXX20
; 2175 :         {
; 2176 :             _Orphan_range_locked(_First, _Last);

	mov	eax, DWORD PTR __Last$[ebp]
	push	eax
	mov	ecx, DWORD PTR __First$[ebp]
	push	ecx
	mov	ecx, DWORD PTR _this$[ebp]
	call	?_Orphan_range_locked@?$vector@PAVFuzzyTerm@@V?$allocator@PAVFuzzyTerm@@@std@@@std@@ABEXPAPAVFuzzyTerm@@0@Z ; std::vector<FuzzyTerm *,std::allocator<FuzzyTerm *> >::_Orphan_range_locked
	npad	1

; 2177 :         }
; 2178 :     }

	add	esp, 4
	cmp	ebp, esp
	call	__RTC_CheckEsp
	mov	esp, ebp
	pop	ebp
	ret	8
?_Orphan_range@?$vector@PAVFuzzyTerm@@V?$allocator@PAVFuzzyTerm@@@std@@@std@@ABEXPAPAVFuzzyTerm@@0@Z ENDP ; std::vector<FuzzyTerm *,std::allocator<FuzzyTerm *> >::_Orphan_range
_TEXT	ENDS
; Function compile flags: /Odtp /RTCsu
; File C:\Program Files\Microsoft Visual Studio\2022\Community\VC\Tools\MSVC\14.42.34433\include\vector
;	COMDAT ?_Orphan_range_locked@?$vector@PAVFuzzyTerm@@V?$allocator@PAVFuzzyTerm@@@std@@@std@@ABEXPAPAVFuzzyTerm@@0@Z
_TEXT	SEGMENT
__Lock$ = -24						; size = 4
_this$ = -16						; size = 4
__$EHRec$ = -12						; size = 12
__First$ = 8						; size = 4
__Last$ = 12						; size = 4
?_Orphan_range_locked@?$vector@PAVFuzzyTerm@@V?$allocator@PAVFuzzyTerm@@@std@@@std@@ABEXPAPAVFuzzyTerm@@0@Z PROC ; std::vector<FuzzyTerm *,std::allocator<FuzzyTerm *> >::_Orphan_range_locked, COMDAT
; _this$ = ecx

; 2163 :     void _Orphan_range_locked(pointer _First, pointer _Last) const {

	push	ebp
	mov	ebp, esp
	push	-1
	push	__ehhandler$?_Orphan_range_locked@?$vector@PAVFuzzyTerm@@V?$allocator@PAVFuzzyTerm@@@std@@@std@@ABEXPAPAVFuzzyTerm@@0@Z
	mov	eax, DWORD PTR fs:0
	push	eax
	sub	esp, 16					; 00000010H
	mov	eax, -858993460				; ccccccccH
	mov	DWORD PTR [ebp-28], eax
	mov	DWORD PTR [ebp-24], eax
	mov	DWORD PTR [ebp-20], eax
	mov	DWORD PTR [ebp-16], eax
	mov	eax, DWORD PTR ___security_cookie
	xor	eax, ebp
	push	eax
	lea	eax, DWORD PTR __$EHRec$[ebp]
	mov	DWORD PTR fs:0, eax
	mov	DWORD PTR _this$[ebp], ecx

; 2164 :         _Lockit _Lock(_LOCK_DEBUG);

	push	3
	lea	ecx, DWORD PTR __Lock$[ebp]
	call	??0_Lockit@std@@QAE@H@Z			; std::_Lockit::_Lockit
	mov	DWORD PTR __$EHRec$[ebp+8], 0

; 2165 :         _Orphan_range_unlocked(_First, _Last);

	mov	eax, DWORD PTR __Last$[ebp]
	push	eax
	mov	ecx, DWORD PTR __First$[ebp]
	push	ecx
	mov	ecx, DWORD PTR _this$[ebp]
	call	?_Orphan_range_unlocked@?$vector@PAVFuzzyTerm@@V?$allocator@PAVFuzzyTerm@@@std@@@std@@ABEXPAPAVFuzzyTerm@@0@Z ; std::vector<FuzzyTerm *,std::allocator<FuzzyTerm *> >::_Orphan_range_unlocked

; 2166 :     }

	mov	DWORD PTR __$EHRec$[ebp+8], -1
	lea	ecx, DWORD PTR __Lock$[ebp]
	call	??1_Lockit@std@@QAE@XZ			; std::_Lockit::~_Lockit
	npad	1
	push	edx
	mov	ecx, ebp
	push	eax
	lea	edx, DWORD PTR $LN7@Orphan_ran
	call	@_RTC_CheckStackVars@8
	pop	eax
	pop	edx
	mov	ecx, DWORD PTR __$EHRec$[ebp]
	mov	DWORD PTR fs:0, ecx
	pop	ecx
	add	esp, 28					; 0000001cH
	cmp	ebp, esp
	call	__RTC_CheckEsp
	mov	esp, ebp
	pop	ebp
	ret	8
	npad	2
$LN7@Orphan_ran:
	DD	1
	DD	$LN6@Orphan_ran
$LN6@Orphan_ran:
	DD	-24					; ffffffe8H
	DD	4
	DD	$LN4@Orphan_ran
$LN4@Orphan_ran:
	DB	95					; 0000005fH
	DB	76					; 0000004cH
	DB	111					; 0000006fH
	DB	99					; 00000063H
	DB	107					; 0000006bH
	DB	0
_TEXT	ENDS
;	COMDAT text$x
text$x	SEGMENT
__unwindfunclet$?_Orphan_range_locked@?$vector@PAVFuzzyTerm@@V?$allocator@PAVFuzzyTerm@@@std@@@std@@ABEXPAPAVFuzzyTerm@@0@Z$0:
	lea	ecx, DWORD PTR __Lock$[ebp]
	jmp	??1_Lockit@std@@QAE@XZ			; std::_Lockit::~_Lockit
	int	3
	int	3
	int	3
	int	3
	int	3
__ehhandler$?_Orphan_range_locked@?$vector@PAVFuzzyTerm@@V?$allocator@PAVFuzzyTerm@@@std@@@std@@ABEXPAPAVFuzzyTerm@@0@Z:
	npad	1
	npad	1
	mov	edx, DWORD PTR [esp+8]
	lea	eax, DWORD PTR [edx+12]
	mov	ecx, DWORD PTR [edx-20]
	xor	ecx, eax
	call	@__security_check_cookie@4
	mov	eax, OFFSET __ehfuncinfo$?_Orphan_range_locked@?$vector@PAVFuzzyTerm@@V?$allocator@PAVFuzzyTerm@@@std@@@std@@ABEXPAPAVFuzzyTerm@@0@Z
	jmp	___CxxFrameHandler3
text$x	ENDS
?_Orphan_range_locked@?$vector@PAVFuzzyTerm@@V?$allocator@PAVFuzzyTerm@@@std@@@std@@ABEXPAPAVFuzzyTerm@@0@Z ENDP ; std::vector<FuzzyTerm *,std::allocator<FuzzyTerm *> >::_Orphan_range_locked
; Function compile flags: /Odtp /RTCsu
; File C:\Program Files\Microsoft Visual Studio\2022\Community\VC\Tools\MSVC\14.42.34433\include\vector
;	COMDAT ?_Orphan_range_unlocked@?$vector@PAVFuzzyTerm@@V?$allocator@PAVFuzzyTerm@@@std@@@std@@ABEXPAPAVFuzzyTerm@@0@Z
_TEXT	SEGMENT
__Temp$1 = -16						; size = 4
__Pnextptr$2 = -12					; size = 4
__Pnext$ = -8						; size = 4
_this$ = -4						; size = 4
__First$ = 8						; size = 4
__Last$ = 12						; size = 4
?_Orphan_range_unlocked@?$vector@PAVFuzzyTerm@@V?$allocator@PAVFuzzyTerm@@@std@@@std@@ABEXPAPAVFuzzyTerm@@0@Z PROC ; std::vector<FuzzyTerm *,std::allocator<FuzzyTerm *> >::_Orphan_range_unlocked, COMDAT
; _this$ = ecx

; 2149 :     _CONSTEXPR20 void _Orphan_range_unlocked(pointer _First, pointer _Last) const {

	push	ebp
	mov	ebp, esp
	sub	esp, 16					; 00000010H
	mov	DWORD PTR _this$[ebp], ecx

; 2150 :         _Iterator_base12** _Pnext = &_Mypair._Myval2._Myproxy->_Myfirstiter;

	mov	eax, DWORD PTR _this$[ebp]
	mov	ecx, DWORD PTR [eax]
	add	ecx, 4
	mov	DWORD PTR __Pnext$[ebp], ecx
$LN2@Orphan_ran:

; 2151 :         while (*_Pnext) {

	mov	edx, DWORD PTR __Pnext$[ebp]
	cmp	DWORD PTR [edx], 0
	je	SHORT $LN3@Orphan_ran

; 2152 :             const auto _Pnextptr = static_cast<const_iterator&>(**_Pnext)._Ptr;

	mov	eax, DWORD PTR __Pnext$[ebp]
	mov	ecx, DWORD PTR [eax]
	mov	edx, DWORD PTR [ecx+8]
	mov	DWORD PTR __Pnextptr$2[ebp], edx

; 2153 :             const auto _Temp     = *_Pnext;

	mov	eax, DWORD PTR __Pnext$[ebp]
	mov	ecx, DWORD PTR [eax]
	mov	DWORD PTR __Temp$1[ebp], ecx

; 2154 :             if (_Pnextptr < _First || _Last < _Pnextptr) { // skip the iterator

	mov	edx, DWORD PTR __Pnextptr$2[ebp]
	cmp	edx, DWORD PTR __First$[ebp]
	jb	SHORT $LN6@Orphan_ran
	mov	eax, DWORD PTR __Last$[ebp]
	cmp	eax, DWORD PTR __Pnextptr$2[ebp]
	jae	SHORT $LN4@Orphan_ran
$LN6@Orphan_ran:

; 2155 :                 _Pnext = &_Temp->_Mynextiter;

	mov	ecx, DWORD PTR __Temp$1[ebp]
	add	ecx, 4
	mov	DWORD PTR __Pnext$[ebp], ecx

; 2156 :             } else { // orphan the iterator

	jmp	SHORT $LN5@Orphan_ran
$LN4@Orphan_ran:

; 2157 :                 _Temp->_Myproxy = nullptr;

	mov	edx, DWORD PTR __Temp$1[ebp]
	mov	DWORD PTR [edx], 0

; 2158 :                 *_Pnext         = _Temp->_Mynextiter;

	mov	eax, DWORD PTR __Pnext$[ebp]
	mov	ecx, DWORD PTR __Temp$1[ebp]
	mov	edx, DWORD PTR [ecx+4]
	mov	DWORD PTR [eax], edx
$LN5@Orphan_ran:

; 2159 :             }
; 2160 :         }

	jmp	SHORT $LN2@Orphan_ran
$LN3@Orphan_ran:

; 2161 :     }

	mov	esp, ebp
	pop	ebp
	ret	8
?_Orphan_range_unlocked@?$vector@PAVFuzzyTerm@@V?$allocator@PAVFuzzyTerm@@@std@@@std@@ABEXPAPAVFuzzyTerm@@0@Z ENDP ; std::vector<FuzzyTerm *,std::allocator<FuzzyTerm *> >::_Orphan_range_unlocked
_TEXT	ENDS
; Function compile flags: /Odtp /RTCsu
; File C:\Program Files\Microsoft Visual Studio\2022\Community\VC\Tools\MSVC\14.42.34433\include\vector
;	COMDAT ?_Xlength@?$vector@PAVFuzzyTerm@@V?$allocator@PAVFuzzyTerm@@@std@@@std@@CAXXZ
_TEXT	SEGMENT
?_Xlength@?$vector@PAVFuzzyTerm@@V?$allocator@PAVFuzzyTerm@@@std@@@std@@CAXXZ PROC ; std::vector<FuzzyTerm *,std::allocator<FuzzyTerm *> >::_Xlength, COMDAT

; 2140 :     [[noreturn]] static void _Xlength() {

	push	ebp
	mov	ebp, esp

; 2141 :         _Xlength_error("vector too long");

	push	OFFSET ??_C@_0BA@FOIKENOD@vector?5too?5long@
	call	?_Xlength_error@std@@YAXPBD@Z		; std::_Xlength_error
	npad	1
$LN1@Xlength:

; 2142 :     }

	cmp	ebp, esp
	call	__RTC_CheckEsp
	pop	ebp
	ret	0
?_Xlength@?$vector@PAVFuzzyTerm@@V?$allocator@PAVFuzzyTerm@@@std@@@std@@CAXXZ ENDP ; std::vector<FuzzyTerm *,std::allocator<FuzzyTerm *> >::_Xlength
_TEXT	ENDS
; Function compile flags: /Odtp /RTCsu
; File C:\Program Files\Microsoft Visual Studio\2022\Community\VC\Tools\MSVC\14.42.34433\include\vector
;	COMDAT ?_Tidy@?$vector@PAVFuzzyTerm@@V?$allocator@PAVFuzzyTerm@@@std@@@std@@AAEXXZ
_TEXT	SEGMENT
__Myend$ = -36						; size = 4
__Mylast$ = -32						; size = 4
__Myfirst$ = -28					; size = 4
__My_data$ = -24					; size = 4
__Al$ = -20						; size = 4
_this$ = -16						; size = 4
__$EHRec$ = -12						; size = 12
?_Tidy@?$vector@PAVFuzzyTerm@@V?$allocator@PAVFuzzyTerm@@@std@@@std@@AAEXXZ PROC ; std::vector<FuzzyTerm *,std::allocator<FuzzyTerm *> >::_Tidy, COMDAT
; _this$ = ecx

; 2038 :     _CONSTEXPR20 void _Tidy() noexcept { // free all storage

	push	ebp
	mov	ebp, esp
	push	-1
	push	__ehhandler$?_Tidy@?$vector@PAVFuzzyTerm@@V?$allocator@PAVFuzzyTerm@@@std@@@std@@AAEXXZ
	mov	eax, DWORD PTR fs:0
	push	eax
	sub	esp, 24					; 00000018H
	mov	eax, -858993460				; ccccccccH
	mov	DWORD PTR [ebp-36], eax
	mov	DWORD PTR [ebp-32], eax
	mov	DWORD PTR [ebp-28], eax
	mov	DWORD PTR [ebp-24], eax
	mov	DWORD PTR [ebp-20], eax
	mov	DWORD PTR [ebp-16], eax
	mov	eax, DWORD PTR ___security_cookie
	xor	eax, ebp
	push	eax
	lea	eax, DWORD PTR __$EHRec$[ebp]
	mov	DWORD PTR fs:0, eax
	mov	DWORD PTR _this$[ebp], ecx

; 2039 :         auto& _Al         = _Getal();

	mov	ecx, DWORD PTR _this$[ebp]
	call	?_Getal@?$vector@PAVFuzzyTerm@@V?$allocator@PAVFuzzyTerm@@@std@@@std@@AAEAAV?$allocator@PAVFuzzyTerm@@@2@XZ ; std::vector<FuzzyTerm *,std::allocator<FuzzyTerm *> >::_Getal
	mov	DWORD PTR __Al$[ebp], eax

; 2040 :         auto& _My_data    = _Mypair._Myval2;

	mov	eax, DWORD PTR _this$[ebp]
	mov	DWORD PTR __My_data$[ebp], eax

; 2041 :         pointer& _Myfirst = _My_data._Myfirst;

	mov	ecx, DWORD PTR __My_data$[ebp]
	add	ecx, 4
	mov	DWORD PTR __Myfirst$[ebp], ecx

; 2042 :         pointer& _Mylast  = _My_data._Mylast;

	mov	edx, DWORD PTR __My_data$[ebp]
	add	edx, 8
	mov	DWORD PTR __Mylast$[ebp], edx

; 2043 :         pointer& _Myend   = _My_data._Myend;

	mov	eax, DWORD PTR __My_data$[ebp]
	add	eax, 12					; 0000000cH
	mov	DWORD PTR __Myend$[ebp], eax

; 2044 : 
; 2045 :         _My_data._Orphan_all();

	mov	ecx, DWORD PTR __My_data$[ebp]
	call	?_Orphan_all@_Container_base12@std@@QAEXXZ ; std::_Container_base12::_Orphan_all
	npad	1

; 2046 : 
; 2047 :         if (_Myfirst) { // destroy and deallocate old array

	mov	ecx, DWORD PTR __Myfirst$[ebp]
	cmp	DWORD PTR [ecx], 0
	je	SHORT $LN2@Tidy

; 2048 :             _STD _Destroy_range(_Myfirst, _Mylast, _Al);

	mov	edx, DWORD PTR __Al$[ebp]
	push	edx
	mov	eax, DWORD PTR __Mylast$[ebp]
	mov	ecx, DWORD PTR [eax]
	push	ecx
	mov	edx, DWORD PTR __Myfirst$[ebp]
	mov	eax, DWORD PTR [edx]
	push	eax
	call	??$_Destroy_range@V?$allocator@PAVFuzzyTerm@@@std@@@std@@YAXPAPAVFuzzyTerm@@QAPAV1@AAV?$allocator@PAVFuzzyTerm@@@0@@Z ; std::_Destroy_range<std::allocator<FuzzyTerm *> >
	add	esp, 12					; 0000000cH

; 2049 :             _ASAN_VECTOR_REMOVE;
; 2050 :             _Al.deallocate(_Myfirst, static_cast<size_type>(_Myend - _Myfirst));

	mov	ecx, DWORD PTR __Myend$[ebp]
	mov	edx, DWORD PTR __Myfirst$[ebp]
	mov	eax, DWORD PTR [ecx]
	sub	eax, DWORD PTR [edx]
	sar	eax, 2
	push	eax
	mov	ecx, DWORD PTR __Myfirst$[ebp]
	mov	edx, DWORD PTR [ecx]
	push	edx
	mov	ecx, DWORD PTR __Al$[ebp]
	call	?deallocate@?$allocator@PAVFuzzyTerm@@@std@@QAEXQAPAVFuzzyTerm@@I@Z ; std::allocator<FuzzyTerm *>::deallocate

; 2051 : 
; 2052 :             _Myfirst = nullptr;

	mov	eax, DWORD PTR __Myfirst$[ebp]
	mov	DWORD PTR [eax], 0

; 2053 :             _Mylast  = nullptr;

	mov	ecx, DWORD PTR __Mylast$[ebp]
	mov	DWORD PTR [ecx], 0

; 2054 :             _Myend   = nullptr;

	mov	edx, DWORD PTR __Myend$[ebp]
	mov	DWORD PTR [edx], 0
$LN2@Tidy:

; 2055 :         }
; 2056 :     }

	mov	ecx, DWORD PTR __$EHRec$[ebp]
	mov	DWORD PTR fs:0, ecx
	pop	ecx
	add	esp, 36					; 00000024H
	cmp	ebp, esp
	call	__RTC_CheckEsp
	mov	esp, ebp
	pop	ebp
	ret	0
	int	3
	int	3
	int	3
	int	3
	int	3
_TEXT	ENDS
;	COMDAT text$x
text$x	SEGMENT
__ehhandler$?_Tidy@?$vector@PAVFuzzyTerm@@V?$allocator@PAVFuzzyTerm@@@std@@@std@@AAEXXZ:
	npad	1
	npad	1
	mov	edx, DWORD PTR [esp+8]
	lea	eax, DWORD PTR [edx+12]
	mov	ecx, DWORD PTR [edx-28]
	xor	ecx, eax
	call	@__security_check_cookie@4
	mov	eax, OFFSET __ehfuncinfo$?_Tidy@?$vector@PAVFuzzyTerm@@V?$allocator@PAVFuzzyTerm@@@std@@@std@@AAEXXZ
	jmp	___CxxFrameHandler3
text$x	ENDS
?_Tidy@?$vector@PAVFuzzyTerm@@V?$allocator@PAVFuzzyTerm@@@std@@@std@@AAEXXZ ENDP ; std::vector<FuzzyTerm *,std::allocator<FuzzyTerm *> >::_Tidy
; Function compile flags: /Odtp /RTCsu
; File C:\Program Files\Microsoft Visual Studio\2022\Community\VC\Tools\MSVC\14.42.34433\include\vector
;	COMDAT ?_Change_array@?$vector@PAVFuzzyTerm@@V?$allocator@PAVFuzzyTerm@@@std@@@std@@AAEXQAPAVFuzzyTerm@@II@Z
_TEXT	SEGMENT
__Myend$ = -24						; size = 4
__Mylast$ = -20						; size = 4
__Myfirst$ = -16					; size = 4
__My_data$ = -12					; size = 4
__Al$ = -8						; size = 4
_this$ = -4						; size = 4
__Newvec$ = 8						; size = 4
__Newsize$ = 12						; size = 4
__Newcapacity$ = 16					; size = 4
?_Change_array@?$vector@PAVFuzzyTerm@@V?$allocator@PAVFuzzyTerm@@@std@@@std@@AAEXQAPAVFuzzyTerm@@II@Z PROC ; std::vector<FuzzyTerm *,std::allocator<FuzzyTerm *> >::_Change_array, COMDAT
; _this$ = ecx

; 2016 :     _CONSTEXPR20 void _Change_array(const pointer _Newvec, const size_type _Newsize, const size_type _Newcapacity) {

	push	ebp
	mov	ebp, esp
	sub	esp, 24					; 00000018H
	mov	eax, -858993460				; ccccccccH
	mov	DWORD PTR [ebp-24], eax
	mov	DWORD PTR [ebp-20], eax
	mov	DWORD PTR [ebp-16], eax
	mov	DWORD PTR [ebp-12], eax
	mov	DWORD PTR [ebp-8], eax
	mov	DWORD PTR [ebp-4], eax
	mov	DWORD PTR _this$[ebp], ecx

; 2017 :         // orphan all iterators, discard old array, acquire new array
; 2018 :         auto& _Al         = _Getal();

	mov	ecx, DWORD PTR _this$[ebp]
	call	?_Getal@?$vector@PAVFuzzyTerm@@V?$allocator@PAVFuzzyTerm@@@std@@@std@@AAEAAV?$allocator@PAVFuzzyTerm@@@2@XZ ; std::vector<FuzzyTerm *,std::allocator<FuzzyTerm *> >::_Getal
	mov	DWORD PTR __Al$[ebp], eax

; 2019 :         auto& _My_data    = _Mypair._Myval2;

	mov	eax, DWORD PTR _this$[ebp]
	mov	DWORD PTR __My_data$[ebp], eax

; 2020 :         pointer& _Myfirst = _My_data._Myfirst;

	mov	ecx, DWORD PTR __My_data$[ebp]
	add	ecx, 4
	mov	DWORD PTR __Myfirst$[ebp], ecx

; 2021 :         pointer& _Mylast  = _My_data._Mylast;

	mov	edx, DWORD PTR __My_data$[ebp]
	add	edx, 8
	mov	DWORD PTR __Mylast$[ebp], edx

; 2022 :         pointer& _Myend   = _My_data._Myend;

	mov	eax, DWORD PTR __My_data$[ebp]
	add	eax, 12					; 0000000cH
	mov	DWORD PTR __Myend$[ebp], eax

; 2023 : 
; 2024 :         _My_data._Orphan_all();

	mov	ecx, DWORD PTR __My_data$[ebp]
	call	?_Orphan_all@_Container_base12@std@@QAEXXZ ; std::_Container_base12::_Orphan_all
	npad	1

; 2025 : 
; 2026 :         if (_Myfirst) { // destroy and deallocate old array

	mov	ecx, DWORD PTR __Myfirst$[ebp]
	cmp	DWORD PTR [ecx], 0
	je	SHORT $LN2@Change_arr

; 2027 :             _STD _Destroy_range(_Myfirst, _Mylast, _Al);

	mov	edx, DWORD PTR __Al$[ebp]
	push	edx
	mov	eax, DWORD PTR __Mylast$[ebp]
	mov	ecx, DWORD PTR [eax]
	push	ecx
	mov	edx, DWORD PTR __Myfirst$[ebp]
	mov	eax, DWORD PTR [edx]
	push	eax
	call	??$_Destroy_range@V?$allocator@PAVFuzzyTerm@@@std@@@std@@YAXPAPAVFuzzyTerm@@QAPAV1@AAV?$allocator@PAVFuzzyTerm@@@0@@Z ; std::_Destroy_range<std::allocator<FuzzyTerm *> >
	add	esp, 12					; 0000000cH

; 2028 :             _ASAN_VECTOR_REMOVE;
; 2029 :             _Al.deallocate(_Myfirst, static_cast<size_type>(_Myend - _Myfirst));

	mov	ecx, DWORD PTR __Myend$[ebp]
	mov	edx, DWORD PTR __Myfirst$[ebp]
	mov	eax, DWORD PTR [ecx]
	sub	eax, DWORD PTR [edx]
	sar	eax, 2
	push	eax
	mov	ecx, DWORD PTR __Myfirst$[ebp]
	mov	edx, DWORD PTR [ecx]
	push	edx
	mov	ecx, DWORD PTR __Al$[ebp]
	call	?deallocate@?$allocator@PAVFuzzyTerm@@@std@@QAEXQAPAVFuzzyTerm@@I@Z ; std::allocator<FuzzyTerm *>::deallocate
	npad	1
$LN2@Change_arr:

; 2030 :         }
; 2031 : 
; 2032 :         _Myfirst = _Newvec;

	mov	eax, DWORD PTR __Myfirst$[ebp]
	mov	ecx, DWORD PTR __Newvec$[ebp]
	mov	DWORD PTR [eax], ecx

; 2033 :         _Mylast  = _Newvec + _Newsize;

	mov	edx, DWORD PTR __Newsize$[ebp]
	mov	eax, DWORD PTR __Newvec$[ebp]
	lea	ecx, DWORD PTR [eax+edx*4]
	mov	edx, DWORD PTR __Mylast$[ebp]
	mov	DWORD PTR [edx], ecx

; 2034 :         _Myend   = _Newvec + _Newcapacity;

	mov	eax, DWORD PTR __Newcapacity$[ebp]
	mov	ecx, DWORD PTR __Newvec$[ebp]
	lea	edx, DWORD PTR [ecx+eax*4]
	mov	eax, DWORD PTR __Myend$[ebp]
	mov	DWORD PTR [eax], edx

; 2035 :         _ASAN_VECTOR_CREATE;
; 2036 :     }

	add	esp, 24					; 00000018H
	cmp	ebp, esp
	call	__RTC_CheckEsp
	mov	esp, ebp
	pop	ebp
	ret	12					; 0000000cH
?_Change_array@?$vector@PAVFuzzyTerm@@V?$allocator@PAVFuzzyTerm@@@std@@@std@@AAEXQAPAVFuzzyTerm@@II@Z ENDP ; std::vector<FuzzyTerm *,std::allocator<FuzzyTerm *> >::_Change_array
_TEXT	ENDS
; Function compile flags: /Odtp /RTCsu
; File C:\Program Files\Microsoft Visual Studio\2022\Community\VC\Tools\MSVC\14.42.34433\include\vector
;	COMDAT ?_Calculate_growth@?$vector@PAVFuzzyTerm@@V?$allocator@PAVFuzzyTerm@@@std@@@std@@ABEII@Z
_TEXT	SEGMENT
__Geometric$ = -16					; size = 4
__Max$ = -12						; size = 4
__Oldcapacity$ = -8					; size = 4
_this$ = -4						; size = 4
__Newsize$ = 8						; size = 4
?_Calculate_growth@?$vector@PAVFuzzyTerm@@V?$allocator@PAVFuzzyTerm@@@std@@@std@@ABEII@Z PROC ; std::vector<FuzzyTerm *,std::allocator<FuzzyTerm *> >::_Calculate_growth, COMDAT
; _this$ = ecx

; 1964 :     _CONSTEXPR20 size_type _Calculate_growth(const size_type _Newsize) const {

	push	ebp
	mov	ebp, esp
	sub	esp, 16					; 00000010H
	mov	eax, -858993460				; ccccccccH
	mov	DWORD PTR [ebp-16], eax
	mov	DWORD PTR [ebp-12], eax
	mov	DWORD PTR [ebp-8], eax
	mov	DWORD PTR [ebp-4], eax
	mov	DWORD PTR _this$[ebp], ecx

; 1965 :         // given _Oldcapacity and _Newsize, calculate geometric growth
; 1966 :         const size_type _Oldcapacity = capacity();

	mov	ecx, DWORD PTR _this$[ebp]
	call	?capacity@?$vector@PAVFuzzyTerm@@V?$allocator@PAVFuzzyTerm@@@std@@@std@@QBEIXZ ; std::vector<FuzzyTerm *,std::allocator<FuzzyTerm *> >::capacity
	mov	DWORD PTR __Oldcapacity$[ebp], eax

; 1967 :         const auto _Max              = max_size();

	mov	ecx, DWORD PTR _this$[ebp]
	call	?max_size@?$vector@PAVFuzzyTerm@@V?$allocator@PAVFuzzyTerm@@@std@@@std@@QBEIXZ ; std::vector<FuzzyTerm *,std::allocator<FuzzyTerm *> >::max_size
	mov	DWORD PTR __Max$[ebp], eax

; 1968 : 
; 1969 :         if (_Oldcapacity > _Max - _Oldcapacity / 2) {

	mov	eax, DWORD PTR __Oldcapacity$[ebp]
	shr	eax, 1
	mov	ecx, DWORD PTR __Max$[ebp]
	sub	ecx, eax
	cmp	DWORD PTR __Oldcapacity$[ebp], ecx
	jbe	SHORT $LN2@Calculate_

; 1970 :             return _Max; // geometric growth would overflow

	mov	eax, DWORD PTR __Max$[ebp]
	jmp	SHORT $LN1@Calculate_
$LN2@Calculate_:

; 1971 :         }
; 1972 : 
; 1973 :         const size_type _Geometric = _Oldcapacity + _Oldcapacity / 2;

	mov	edx, DWORD PTR __Oldcapacity$[ebp]
	shr	edx, 1
	add	edx, DWORD PTR __Oldcapacity$[ebp]
	mov	DWORD PTR __Geometric$[ebp], edx

; 1974 : 
; 1975 :         if (_Geometric < _Newsize) {

	mov	eax, DWORD PTR __Geometric$[ebp]
	cmp	eax, DWORD PTR __Newsize$[ebp]
	jae	SHORT $LN3@Calculate_

; 1976 :             return _Newsize; // geometric growth would be insufficient

	mov	eax, DWORD PTR __Newsize$[ebp]
	jmp	SHORT $LN1@Calculate_
$LN3@Calculate_:

; 1977 :         }
; 1978 : 
; 1979 :         return _Geometric; // geometric growth is sufficient

	mov	eax, DWORD PTR __Geometric$[ebp]
$LN1@Calculate_:

; 1980 :     }

	add	esp, 16					; 00000010H
	cmp	ebp, esp
	call	__RTC_CheckEsp
	mov	esp, ebp
	pop	ebp
	ret	4
?_Calculate_growth@?$vector@PAVFuzzyTerm@@V?$allocator@PAVFuzzyTerm@@@std@@@std@@ABEII@Z ENDP ; std::vector<FuzzyTerm *,std::allocator<FuzzyTerm *> >::_Calculate_growth
_TEXT	ENDS
; Function compile flags: /Odtp /RTCsu
; File C:\Program Files\Microsoft Visual Studio\2022\Community\VC\Tools\MSVC\14.42.34433\include\vector
;	COMDAT ?capacity@?$vector@PAVFuzzyTerm@@V?$allocator@PAVFuzzyTerm@@@std@@@std@@QBEIXZ
_TEXT	SEGMENT
__My_data$ = -8						; size = 4
_this$ = -4						; size = 4
?capacity@?$vector@PAVFuzzyTerm@@V?$allocator@PAVFuzzyTerm@@@std@@@std@@QBEIXZ PROC ; std::vector<FuzzyTerm *,std::allocator<FuzzyTerm *> >::capacity, COMDAT
; _this$ = ecx

; 1880 :     _NODISCARD _CONSTEXPR20 size_type capacity() const noexcept {

	push	ebp
	mov	ebp, esp
	sub	esp, 8
	mov	DWORD PTR _this$[ebp], ecx

; 1881 :         auto& _My_data = _Mypair._Myval2;

	mov	eax, DWORD PTR _this$[ebp]
	mov	DWORD PTR __My_data$[ebp], eax

; 1882 :         return static_cast<size_type>(_My_data._Myend - _My_data._Myfirst);

	mov	ecx, DWORD PTR __My_data$[ebp]
	mov	edx, DWORD PTR __My_data$[ebp]
	mov	eax, DWORD PTR [ecx+12]
	sub	eax, DWORD PTR [edx+4]
	sar	eax, 2

; 1883 :     }

	mov	esp, ebp
	pop	ebp
	ret	0
?capacity@?$vector@PAVFuzzyTerm@@V?$allocator@PAVFuzzyTerm@@@std@@@std@@QBEIXZ ENDP ; std::vector<FuzzyTerm *,std::allocator<FuzzyTerm *> >::capacity
_TEXT	ENDS
; Function compile flags: /Odtp /RTCsu
; File C:\Program Files\Microsoft Visual Studio\2022\Community\VC\Tools\MSVC\14.42.34433\include\vector
;	COMDAT ?max_size@?$vector@PAVFuzzyTerm@@V?$allocator@PAVFuzzyTerm@@@std@@@std@@QBEIXZ
_TEXT	SEGMENT
$T1 = -12						; size = 4
$T2 = -8						; size = 4
_this$ = -4						; size = 4
?max_size@?$vector@PAVFuzzyTerm@@V?$allocator@PAVFuzzyTerm@@@std@@@std@@QBEIXZ PROC ; std::vector<FuzzyTerm *,std::allocator<FuzzyTerm *> >::max_size, COMDAT
; _this$ = ecx

; 1876 :     _NODISCARD _CONSTEXPR20 size_type max_size() const noexcept {

	push	ebp
	mov	ebp, esp
	sub	esp, 12					; 0000000cH
	mov	DWORD PTR [ebp-12], -858993460		; ccccccccH
	mov	DWORD PTR [ebp-8], -858993460		; ccccccccH
	mov	DWORD PTR [ebp-4], -858993460		; ccccccccH
	mov	DWORD PTR _this$[ebp], ecx

; 1877 :         return (_STD min)(static_cast<size_type>(_STD _Max_limit<difference_type>()), _Alty_traits::max_size(_Getal()));

	mov	ecx, DWORD PTR _this$[ebp]
	call	?_Getal@?$vector@PAVFuzzyTerm@@V?$allocator@PAVFuzzyTerm@@@std@@@std@@ABEABV?$allocator@PAVFuzzyTerm@@@2@XZ ; std::vector<FuzzyTerm *,std::allocator<FuzzyTerm *> >::_Getal
	push	eax
	call	?max_size@?$_Default_allocator_traits@V?$allocator@PAVFuzzyTerm@@@std@@@std@@SAIABV?$allocator@PAVFuzzyTerm@@@2@@Z ; std::_Default_allocator_traits<std::allocator<FuzzyTerm *> >::max_size
	add	esp, 4
	mov	DWORD PTR $T2[ebp], eax
	call	??$_Max_limit@H@std@@YAHXZ		; std::_Max_limit<int>
	mov	DWORD PTR $T1[ebp], eax
	lea	eax, DWORD PTR $T2[ebp]
	push	eax
	lea	ecx, DWORD PTR $T1[ebp]
	push	ecx
	call	??$min@I@std@@YAABIABI0@Z		; std::min<unsigned int>
	add	esp, 8
	mov	eax, DWORD PTR [eax]

; 1878 :     }

	add	esp, 12					; 0000000cH
	cmp	ebp, esp
	call	__RTC_CheckEsp
	mov	esp, ebp
	pop	ebp
	ret	0
?max_size@?$vector@PAVFuzzyTerm@@V?$allocator@PAVFuzzyTerm@@@std@@@std@@QBEIXZ ENDP ; std::vector<FuzzyTerm *,std::allocator<FuzzyTerm *> >::max_size
_TEXT	ENDS
; Function compile flags: /Odtp /RTCsu
; File C:\Program Files\Microsoft Visual Studio\2022\Community\VC\Tools\MSVC\14.42.34433\include\vector
;	COMDAT ?end@?$vector@PAVFuzzyTerm@@V?$allocator@PAVFuzzyTerm@@@std@@@std@@QBE?AV?$_Vector_const_iterator@V?$_Vector_val@U?$_Simple_types@PAVFuzzyTerm@@@std@@@std@@@2@XZ
_TEXT	SEGMENT
__My_data$ = -8						; size = 4
_this$ = -4						; size = 4
___$ReturnUdt$ = 8					; size = 4
?end@?$vector@PAVFuzzyTerm@@V?$allocator@PAVFuzzyTerm@@@std@@@std@@QBE?AV?$_Vector_const_iterator@V?$_Vector_val@U?$_Simple_types@PAVFuzzyTerm@@@std@@@std@@@2@XZ PROC ; std::vector<FuzzyTerm *,std::allocator<FuzzyTerm *> >::end, COMDAT
; _this$ = ecx

; 1813 :     _NODISCARD _CONSTEXPR20 const_iterator end() const noexcept {

	push	ebp
	mov	ebp, esp
	sub	esp, 8
	mov	DWORD PTR [ebp-8], -858993460		; ccccccccH
	mov	DWORD PTR [ebp-4], -858993460		; ccccccccH
	mov	DWORD PTR _this$[ebp], ecx

; 1814 :         auto& _My_data = _Mypair._Myval2;

	mov	eax, DWORD PTR _this$[ebp]
	mov	DWORD PTR __My_data$[ebp], eax

; 1815 :         return const_iterator(_My_data._Mylast, _STD addressof(_My_data));

	mov	ecx, DWORD PTR __My_data$[ebp]
	push	ecx
	call	??$addressof@$$CBV?$_Vector_val@U?$_Simple_types@PAVFuzzyTerm@@@std@@@std@@@std@@YAPBV?$_Vector_val@U?$_Simple_types@PAVFuzzyTerm@@@std@@@0@ABV10@@Z ; std::addressof<std::_Vector_val<std::_Simple_types<FuzzyTerm *> > const >
	add	esp, 4
	push	eax
	mov	edx, DWORD PTR __My_data$[ebp]
	mov	eax, DWORD PTR [edx+8]
	push	eax
	mov	ecx, DWORD PTR ___$ReturnUdt$[ebp]
	call	??0?$_Vector_const_iterator@V?$_Vector_val@U?$_Simple_types@PAVFuzzyTerm@@@std@@@std@@@std@@QAE@PAPAVFuzzyTerm@@PBU_Container_base12@1@@Z ; std::_Vector_const_iterator<std::_Vector_val<std::_Simple_types<FuzzyTerm *> > >::_Vector_const_iterator<std::_Vector_val<std::_Simple_types<FuzzyTerm *> > >
	mov	eax, DWORD PTR ___$ReturnUdt$[ebp]

; 1816 :     }

	add	esp, 8
	cmp	ebp, esp
	call	__RTC_CheckEsp
	mov	esp, ebp
	pop	ebp
	ret	4
?end@?$vector@PAVFuzzyTerm@@V?$allocator@PAVFuzzyTerm@@@std@@@std@@QBE?AV?$_Vector_const_iterator@V?$_Vector_val@U?$_Simple_types@PAVFuzzyTerm@@@std@@@std@@@2@XZ ENDP ; std::vector<FuzzyTerm *,std::allocator<FuzzyTerm *> >::end
_TEXT	ENDS
; Function compile flags: /Odtp /RTCsu
; File C:\Program Files\Microsoft Visual Studio\2022\Community\VC\Tools\MSVC\14.42.34433\include\vector
;	COMDAT ?end@?$vector@PAVFuzzyTerm@@V?$allocator@PAVFuzzyTerm@@@std@@@std@@QAE?AV?$_Vector_iterator@V?$_Vector_val@U?$_Simple_types@PAVFuzzyTerm@@@std@@@std@@@2@XZ
_TEXT	SEGMENT
__My_data$ = -8						; size = 4
_this$ = -4						; size = 4
___$ReturnUdt$ = 8					; size = 4
?end@?$vector@PAVFuzzyTerm@@V?$allocator@PAVFuzzyTerm@@@std@@@std@@QAE?AV?$_Vector_iterator@V?$_Vector_val@U?$_Simple_types@PAVFuzzyTerm@@@std@@@std@@@2@XZ PROC ; std::vector<FuzzyTerm *,std::allocator<FuzzyTerm *> >::end, COMDAT
; _this$ = ecx

; 1808 :     _NODISCARD _CONSTEXPR20 iterator end() noexcept {

	push	ebp
	mov	ebp, esp
	sub	esp, 8
	mov	DWORD PTR [ebp-8], -858993460		; ccccccccH
	mov	DWORD PTR [ebp-4], -858993460		; ccccccccH
	mov	DWORD PTR _this$[ebp], ecx

; 1809 :         auto& _My_data = _Mypair._Myval2;

	mov	eax, DWORD PTR _this$[ebp]
	mov	DWORD PTR __My_data$[ebp], eax

; 1810 :         return iterator(_My_data._Mylast, _STD addressof(_My_data));

	mov	ecx, DWORD PTR __My_data$[ebp]
	push	ecx
	call	??$addressof@V?$_Vector_val@U?$_Simple_types@PAVFuzzyTerm@@@std@@@std@@@std@@YAPAV?$_Vector_val@U?$_Simple_types@PAVFuzzyTerm@@@std@@@0@AAV10@@Z ; std::addressof<std::_Vector_val<std::_Simple_types<FuzzyTerm *> > >
	add	esp, 4
	push	eax
	mov	edx, DWORD PTR __My_data$[ebp]
	mov	eax, DWORD PTR [edx+8]
	push	eax
	mov	ecx, DWORD PTR ___$ReturnUdt$[ebp]
	call	??0?$_Vector_iterator@V?$_Vector_val@U?$_Simple_types@PAVFuzzyTerm@@@std@@@std@@@std@@QAE@PAPAVFuzzyTerm@@PBU_Container_base12@1@@Z
	mov	eax, DWORD PTR ___$ReturnUdt$[ebp]

; 1811 :     }

	add	esp, 8
	cmp	ebp, esp
	call	__RTC_CheckEsp
	mov	esp, ebp
	pop	ebp
	ret	4
?end@?$vector@PAVFuzzyTerm@@V?$allocator@PAVFuzzyTerm@@@std@@@std@@QAE?AV?$_Vector_iterator@V?$_Vector_val@U?$_Simple_types@PAVFuzzyTerm@@@std@@@std@@@2@XZ ENDP ; std::vector<FuzzyTerm *,std::allocator<FuzzyTerm *> >::end
_TEXT	ENDS
; Function compile flags: /Odtp /RTCsu
; File C:\Program Files\Microsoft Visual Studio\2022\Community\VC\Tools\MSVC\14.42.34433\include\vector
;	COMDAT ?begin@?$vector@PAVFuzzyTerm@@V?$allocator@PAVFuzzyTerm@@@std@@@std@@QBE?AV?$_Vector_const_iterator@V?$_Vector_val@U?$_Simple_types@PAVFuzzyTerm@@@std@@@std@@@2@XZ
_TEXT	SEGMENT
__My_data$ = -8						; size = 4
_this$ = -4						; size = 4
___$ReturnUdt$ = 8					; size = 4
?begin@?$vector@PAVFuzzyTerm@@V?$allocator@PAVFuzzyTerm@@@std@@@std@@QBE?AV?$_Vector_const_iterator@V?$_Vector_val@U?$_Simple_types@PAVFuzzyTerm@@@std@@@std@@@2@XZ PROC ; std::vector<FuzzyTerm *,std::allocator<FuzzyTerm *> >::begin, COMDAT
; _this$ = ecx

; 1803 :     _NODISCARD _CONSTEXPR20 const_iterator begin() const noexcept {

	push	ebp
	mov	ebp, esp
	sub	esp, 8
	mov	DWORD PTR [ebp-8], -858993460		; ccccccccH
	mov	DWORD PTR [ebp-4], -858993460		; ccccccccH
	mov	DWORD PTR _this$[ebp], ecx

; 1804 :         auto& _My_data = _Mypair._Myval2;

	mov	eax, DWORD PTR _this$[ebp]
	mov	DWORD PTR __My_data$[ebp], eax

; 1805 :         return const_iterator(_My_data._Myfirst, _STD addressof(_My_data));

	mov	ecx, DWORD PTR __My_data$[ebp]
	push	ecx
	call	??$addressof@$$CBV?$_Vector_val@U?$_Simple_types@PAVFuzzyTerm@@@std@@@std@@@std@@YAPBV?$_Vector_val@U?$_Simple_types@PAVFuzzyTerm@@@std@@@0@ABV10@@Z ; std::addressof<std::_Vector_val<std::_Simple_types<FuzzyTerm *> > const >
	add	esp, 4
	push	eax
	mov	edx, DWORD PTR __My_data$[ebp]
	mov	eax, DWORD PTR [edx+4]
	push	eax
	mov	ecx, DWORD PTR ___$ReturnUdt$[ebp]
	call	??0?$_Vector_const_iterator@V?$_Vector_val@U?$_Simple_types@PAVFuzzyTerm@@@std@@@std@@@std@@QAE@PAPAVFuzzyTerm@@PBU_Container_base12@1@@Z ; std::_Vector_const_iterator<std::_Vector_val<std::_Simple_types<FuzzyTerm *> > >::_Vector_const_iterator<std::_Vector_val<std::_Simple_types<FuzzyTerm *> > >
	mov	eax, DWORD PTR ___$ReturnUdt$[ebp]

; 1806 :     }

	add	esp, 8
	cmp	ebp, esp
	call	__RTC_CheckEsp
	mov	esp, ebp
	pop	ebp
	ret	4
?begin@?$vector@PAVFuzzyTerm@@V?$allocator@PAVFuzzyTerm@@@std@@@std@@QBE?AV?$_Vector_const_iterator@V?$_Vector_val@U?$_Simple_types@PAVFuzzyTerm@@@std@@@std@@@2@XZ ENDP ; std::vector<FuzzyTerm *,std::allocator<FuzzyTerm *> >::begin
_TEXT	ENDS
; Function compile flags: /Odtp /RTCsu
; File C:\Program Files\Microsoft Visual Studio\2022\Community\VC\Tools\MSVC\14.42.34433\include\vector
;	COMDAT ?begin@?$vector@PAVFuzzyTerm@@V?$allocator@PAVFuzzyTerm@@@std@@@std@@QAE?AV?$_Vector_iterator@V?$_Vector_val@U?$_Simple_types@PAVFuzzyTerm@@@std@@@std@@@2@XZ
_TEXT	SEGMENT
__My_data$ = -8						; size = 4
_this$ = -4						; size = 4
___$ReturnUdt$ = 8					; size = 4
?begin@?$vector@PAVFuzzyTerm@@V?$allocator@PAVFuzzyTerm@@@std@@@std@@QAE?AV?$_Vector_iterator@V?$_Vector_val@U?$_Simple_types@PAVFuzzyTerm@@@std@@@std@@@2@XZ PROC ; std::vector<FuzzyTerm *,std::allocator<FuzzyTerm *> >::begin, COMDAT
; _this$ = ecx

; 1798 :     _NODISCARD _CONSTEXPR20 iterator begin() noexcept {

	push	ebp
	mov	ebp, esp
	sub	esp, 8
	mov	DWORD PTR [ebp-8], -858993460		; ccccccccH
	mov	DWORD PTR [ebp-4], -858993460		; ccccccccH
	mov	DWORD PTR _this$[ebp], ecx

; 1799 :         auto& _My_data = _Mypair._Myval2;

	mov	eax, DWORD PTR _this$[ebp]
	mov	DWORD PTR __My_data$[ebp], eax

; 1800 :         return iterator(_My_data._Myfirst, _STD addressof(_My_data));

	mov	ecx, DWORD PTR __My_data$[ebp]
	push	ecx
	call	??$addressof@V?$_Vector_val@U?$_Simple_types@PAVFuzzyTerm@@@std@@@std@@@std@@YAPAV?$_Vector_val@U?$_Simple_types@PAVFuzzyTerm@@@std@@@0@AAV10@@Z ; std::addressof<std::_Vector_val<std::_Simple_types<FuzzyTerm *> > >
	add	esp, 4
	push	eax
	mov	edx, DWORD PTR __My_data$[ebp]
	mov	eax, DWORD PTR [edx+4]
	push	eax
	mov	ecx, DWORD PTR ___$ReturnUdt$[ebp]
	call	??0?$_Vector_iterator@V?$_Vector_val@U?$_Simple_types@PAVFuzzyTerm@@@std@@@std@@@std@@QAE@PAPAVFuzzyTerm@@PBU_Container_base12@1@@Z
	mov	eax, DWORD PTR ___$ReturnUdt$[ebp]

; 1801 :     }

	add	esp, 8
	cmp	ebp, esp
	call	__RTC_CheckEsp
	mov	esp, ebp
	pop	ebp
	ret	4
?begin@?$vector@PAVFuzzyTerm@@V?$allocator@PAVFuzzyTerm@@@std@@@std@@QAE?AV?$_Vector_iterator@V?$_Vector_val@U?$_Simple_types@PAVFuzzyTerm@@@std@@@std@@@2@XZ ENDP ; std::vector<FuzzyTerm *,std::allocator<FuzzyTerm *> >::begin
_TEXT	ENDS
; Function compile flags: /Odtp /RTCsu
; File C:\Program Files\Microsoft Visual Studio\2022\Community\VC\Tools\MSVC\14.42.34433\include\vector
;	COMDAT ?push_back@?$vector@PAVFuzzyTerm@@V?$allocator@PAVFuzzyTerm@@@std@@@std@@QAEX$$QAPAVFuzzyTerm@@@Z
_TEXT	SEGMENT
_this$ = -4						; size = 4
__Val$ = 8						; size = 4
?push_back@?$vector@PAVFuzzyTerm@@V?$allocator@PAVFuzzyTerm@@@std@@@std@@QAEX$$QAPAVFuzzyTerm@@@Z PROC ; std::vector<FuzzyTerm *,std::allocator<FuzzyTerm *> >::push_back, COMDAT
; _this$ = ecx

; 870  :     _CONSTEXPR20 void push_back(_Ty&& _Val) {

	push	ebp
	mov	ebp, esp
	push	ecx
	mov	DWORD PTR [ebp-4], -858993460		; ccccccccH
	mov	DWORD PTR _this$[ebp], ecx

; 871  :         // insert by moving into element at end, provide strong guarantee
; 872  :         _Emplace_one_at_back(_STD move(_Val));

	mov	eax, DWORD PTR __Val$[ebp]
	push	eax
	call	??$move@AAPAVFuzzyTerm@@@std@@YA$$QAPAVFuzzyTerm@@AAPAV1@@Z ; std::move<FuzzyTerm * &>
	add	esp, 4
	push	eax
	mov	ecx, DWORD PTR _this$[ebp]
	call	??$_Emplace_one_at_back@PAVFuzzyTerm@@@?$vector@PAVFuzzyTerm@@V?$allocator@PAVFuzzyTerm@@@std@@@std@@AAEAAPAVFuzzyTerm@@$$QAPAV2@@Z ; std::vector<FuzzyTerm *,std::allocator<FuzzyTerm *> >::_Emplace_one_at_back<FuzzyTerm *>
	npad	1

; 873  :     }

	add	esp, 4
	cmp	ebp, esp
	call	__RTC_CheckEsp
	mov	esp, ebp
	pop	ebp
	ret	4
?push_back@?$vector@PAVFuzzyTerm@@V?$allocator@PAVFuzzyTerm@@@std@@@std@@QAEX$$QAPAVFuzzyTerm@@@Z ENDP ; std::vector<FuzzyTerm *,std::allocator<FuzzyTerm *> >::push_back
_TEXT	ENDS
; Function compile flags: /Odtp /RTCsu
; File C:\Program Files\Microsoft Visual Studio\2022\Community\VC\Tools\MSVC\14.42.34433\include\vector
;	COMDAT ??1?$vector@PAVFuzzyTerm@@V?$allocator@PAVFuzzyTerm@@@std@@@std@@QAE@XZ
_TEXT	SEGMENT
$T1 = -24						; size = 4
_$S1$ = -13						; size = 1
__Alproxy$ = -8						; size = 4
_this$ = -4						; size = 4
??1?$vector@PAVFuzzyTerm@@V?$allocator@PAVFuzzyTerm@@@std@@@std@@QAE@XZ PROC ; std::vector<FuzzyTerm *,std::allocator<FuzzyTerm *> >::~vector<FuzzyTerm *,std::allocator<FuzzyTerm *> >, COMDAT
; _this$ = ecx

; 760  :     _CONSTEXPR20 ~vector() noexcept {

	push	ebp
	mov	ebp, esp
	sub	esp, 24					; 00000018H
	mov	eax, -858993460				; ccccccccH
	mov	DWORD PTR [ebp-24], eax
	mov	DWORD PTR [ebp-20], eax
	mov	DWORD PTR [ebp-16], eax
	mov	DWORD PTR [ebp-12], eax
	mov	DWORD PTR [ebp-8], eax
	mov	DWORD PTR [ebp-4], eax
	mov	DWORD PTR _this$[ebp], ecx

; 761  :         _Tidy();

	mov	ecx, DWORD PTR _this$[ebp]
	call	?_Tidy@?$vector@PAVFuzzyTerm@@V?$allocator@PAVFuzzyTerm@@@std@@@std@@AAEXXZ ; std::vector<FuzzyTerm *,std::allocator<FuzzyTerm *> >::_Tidy

; 762  : #if _ITERATOR_DEBUG_LEVEL != 0
; 763  :         auto&& _Alproxy = _GET_PROXY_ALLOCATOR(_Alty, _Getal());

	mov	ecx, DWORD PTR _this$[ebp]
	call	?_Getal@?$vector@PAVFuzzyTerm@@V?$allocator@PAVFuzzyTerm@@@std@@@std@@AAEAAV?$allocator@PAVFuzzyTerm@@@2@XZ ; std::vector<FuzzyTerm *,std::allocator<FuzzyTerm *> >::_Getal
	push	eax
	lea	ecx, DWORD PTR _$S1$[ebp]
	call	??$?0PAVFuzzyTerm@@@?$allocator@U_Container_proxy@std@@@std@@QAE@ABV?$allocator@PAVFuzzyTerm@@@1@@Z ; std::allocator<std::_Container_proxy>::allocator<std::_Container_proxy><FuzzyTerm *>
	lea	eax, DWORD PTR _$S1$[ebp]
	mov	DWORD PTR __Alproxy$[ebp], eax

; 764  :         _Delete_plain_internal(_Alproxy, _STD exchange(_Mypair._Myval2._Myproxy, nullptr));

	mov	DWORD PTR $T1[ebp], 0
	lea	ecx, DWORD PTR $T1[ebp]
	push	ecx
	mov	edx, DWORD PTR _this$[ebp]
	push	edx
	call	??$exchange@PAU_Container_proxy@std@@$$T@std@@YAPAU_Container_proxy@0@AAPAU10@$$QA$$T@Z ; std::exchange<std::_Container_proxy *,std::nullptr_t>
	add	esp, 8
	push	eax
	mov	eax, DWORD PTR __Alproxy$[ebp]
	push	eax
	call	??$_Delete_plain_internal@V?$allocator@U_Container_proxy@std@@@std@@@std@@YAXAAV?$allocator@U_Container_proxy@std@@@0@QAU_Container_proxy@0@@Z ; std::_Delete_plain_internal<std::allocator<std::_Container_proxy> >
	add	esp, 8

; 765  : #endif // _ITERATOR_DEBUG_LEVEL != 0
; 766  :     }

	push	edx
	mov	ecx, ebp
	push	eax
	lea	edx, DWORD PTR $LN6@vector
	call	@_RTC_CheckStackVars@8
	pop	eax
	pop	edx
	add	esp, 24					; 00000018H
	cmp	ebp, esp
	call	__RTC_CheckEsp
	mov	esp, ebp
	pop	ebp
	ret	0
	npad	2
$LN6@vector:
	DD	1
	DD	$LN5@vector
$LN5@vector:
	DD	-13					; fffffff3H
	DD	1
	DD	$LN4@vector
$LN4@vector:
	DB	36					; 00000024H
	DB	83					; 00000053H
	DB	49					; 00000031H
	DB	0
??1?$vector@PAVFuzzyTerm@@V?$allocator@PAVFuzzyTerm@@@std@@@std@@QAE@XZ ENDP ; std::vector<FuzzyTerm *,std::allocator<FuzzyTerm *> >::~vector<FuzzyTerm *,std::allocator<FuzzyTerm *> >
_TEXT	ENDS
; Function compile flags: /Odtp /RTCsu
; File C:\Program Files\Microsoft Visual Studio\2022\Community\VC\Tools\MSVC\14.42.34433\include\vector
;	COMDAT ??0?$vector@PAVFuzzyTerm@@V?$allocator@PAVFuzzyTerm@@@std@@@std@@QAE@XZ
_TEXT	SEGMENT
$T2 = -18						; size = 1
$T3 = -17						; size = 1
_this$ = -16						; size = 4
__$EHRec$ = -12						; size = 12
??0?$vector@PAVFuzzyTerm@@V?$allocator@PAVFuzzyTerm@@@std@@@std@@QAE@XZ PROC ; std::vector<FuzzyTerm *,std::allocator<FuzzyTerm *> >::vector<FuzzyTerm *,std::allocator<FuzzyTerm *> >, COMDAT
; _this$ = ecx

; 601  :     _CONSTEXPR20 vector() noexcept(is_nothrow_default_constructible_v<_Alty>) : _Mypair(_Zero_then_variadic_args_t{}) {

	push	ebp
	mov	ebp, esp
	push	-1
	push	__ehhandler$??0?$vector@PAVFuzzyTerm@@V?$allocator@PAVFuzzyTerm@@@std@@@std@@QAE@XZ
	mov	eax, DWORD PTR fs:0
	push	eax
	sub	esp, 8
	mov	DWORD PTR [ebp-20], -858993460		; ccccccccH
	mov	DWORD PTR [ebp-16], -858993460		; ccccccccH
	mov	eax, DWORD PTR ___security_cookie
	xor	eax, ebp
	push	eax
	lea	eax, DWORD PTR __$EHRec$[ebp]
	mov	DWORD PTR fs:0, eax
	mov	DWORD PTR _this$[ebp], ecx
	movzx	eax, BYTE PTR $T3[ebp]
	push	eax
	mov	ecx, DWORD PTR _this$[ebp]
	call	??$?0$$V@?$_Compressed_pair@V?$allocator@PAVFuzzyTerm@@@std@@V?$_Vector_val@U?$_Simple_types@PAVFuzzyTerm@@@std@@@2@$00@std@@QAE@U_Zero_then_variadic_args_t@1@@Z ; std::_Compressed_pair<std::allocator<FuzzyTerm *>,std::_Vector_val<std::_Simple_types<FuzzyTerm *> >,1>::_Compressed_pair<std::allocator<FuzzyTerm *>,std::_Vector_val<std::_Simple_types<FuzzyTerm *> >,1><>
	npad	1

; 602  :         _Mypair._Myval2._Alloc_proxy(_GET_PROXY_ALLOCATOR(_Alty, _Getal()));

	mov	ecx, DWORD PTR _this$[ebp]
	call	?_Getal@?$vector@PAVFuzzyTerm@@V?$allocator@PAVFuzzyTerm@@@std@@@std@@AAEAAV?$allocator@PAVFuzzyTerm@@@2@XZ ; std::vector<FuzzyTerm *,std::allocator<FuzzyTerm *> >::_Getal
	push	eax
	lea	ecx, DWORD PTR $T2[ebp]
	call	??$?0PAVFuzzyTerm@@@?$allocator@U_Container_proxy@std@@@std@@QAE@ABV?$allocator@PAVFuzzyTerm@@@1@@Z ; std::allocator<std::_Container_proxy>::allocator<std::_Container_proxy><FuzzyTerm *>
	push	eax
	mov	ecx, DWORD PTR _this$[ebp]
	call	??$_Alloc_proxy@V?$allocator@U_Container_proxy@std@@@std@@@_Container_base12@std@@QAEX$$QAV?$allocator@U_Container_proxy@std@@@1@@Z ; std::_Container_base12::_Alloc_proxy<std::allocator<std::_Container_proxy> >
	npad	1

; 603  :     }

	mov	eax, DWORD PTR _this$[ebp]
	mov	ecx, DWORD PTR __$EHRec$[ebp]
	mov	DWORD PTR fs:0, ecx
	pop	ecx
	add	esp, 20					; 00000014H
	cmp	ebp, esp
	call	__RTC_CheckEsp
	mov	esp, ebp
	pop	ebp
	ret	0
	int	3
	int	3
	int	3
	int	3
	int	3
_TEXT	ENDS
;	COMDAT text$x
text$x	SEGMENT
__ehhandler$??0?$vector@PAVFuzzyTerm@@V?$allocator@PAVFuzzyTerm@@@std@@@std@@QAE@XZ:
	npad	1
	npad	1
	mov	edx, DWORD PTR [esp+8]
	lea	eax, DWORD PTR [edx+12]
	mov	ecx, DWORD PTR [edx-12]
	xor	ecx, eax
	call	@__security_check_cookie@4
	mov	eax, OFFSET __ehfuncinfo$??0?$vector@PAVFuzzyTerm@@V?$allocator@PAVFuzzyTerm@@@std@@@std@@QAE@XZ
	jmp	___CxxFrameHandler3
text$x	ENDS
??0?$vector@PAVFuzzyTerm@@V?$allocator@PAVFuzzyTerm@@@std@@@std@@QAE@XZ ENDP ; std::vector<FuzzyTerm *,std::allocator<FuzzyTerm *> >::vector<FuzzyTerm *,std::allocator<FuzzyTerm *> >
; Function compile flags: /Odtp /RTCsu
; File C:\Program Files\Microsoft Visual Studio\2022\Community\VC\Tools\MSVC\14.42.34433\include\xmemory
;	COMDAT ?max_size@?$_Default_allocator_traits@V?$allocator@PAVFuzzyTerm@@@std@@@std@@SAIABV?$allocator@PAVFuzzyTerm@@@2@@Z
_TEXT	SEGMENT
___formal$ = 8						; size = 4
?max_size@?$_Default_allocator_traits@V?$allocator@PAVFuzzyTerm@@@std@@@std@@SAIABV?$allocator@PAVFuzzyTerm@@@2@@Z PROC ; std::_Default_allocator_traits<std::allocator<FuzzyTerm *> >::max_size, COMDAT

; 713  :     _NODISCARD static _CONSTEXPR20 size_type max_size(const _Alloc&) noexcept {

	push	ebp
	mov	ebp, esp

; 714  :         return static_cast<size_t>(-1) / sizeof(value_type);

	mov	eax, 1073741823				; 3fffffffH

; 715  :     }

	pop	ebp
	ret	0
?max_size@?$_Default_allocator_traits@V?$allocator@PAVFuzzyTerm@@@std@@@std@@SAIABV?$allocator@PAVFuzzyTerm@@@2@@Z ENDP ; std::_Default_allocator_traits<std::allocator<FuzzyTerm *> >::max_size
_TEXT	ENDS
; Function compile flags: /Odtp /RTCsu
; File C:\Program Files\Microsoft Visual Studio\2022\Community\VC\Tools\MSVC\14.42.34433\include\xmemory
;	COMDAT ?allocate@?$allocator@PAVFuzzyTerm@@@std@@QAEPAPAVFuzzyTerm@@I@Z
_TEXT	SEGMENT
_this$ = -4						; size = 4
__Count$ = 8						; size = 4
?allocate@?$allocator@PAVFuzzyTerm@@@std@@QAEPAPAVFuzzyTerm@@I@Z PROC ; std::allocator<FuzzyTerm *>::allocate, COMDAT
; _this$ = ecx

; 952  :     _NODISCARD_RAW_PTR_ALLOC _CONSTEXPR20 __declspec(allocator) _Ty* allocate(_CRT_GUARDOVERFLOW const size_t _Count) {

	push	ebp
	mov	ebp, esp
	push	ecx
	mov	DWORD PTR [ebp-4], -858993460		; ccccccccH
	mov	DWORD PTR _this$[ebp], ecx

; 953  :         static_assert(sizeof(value_type) > 0, "value_type must be complete before calling allocate.");
; 954  :         return static_cast<_Ty*>(_STD _Allocate<_New_alignof<_Ty>>(_Get_size_of_n<sizeof(_Ty)>(_Count)));

	mov	eax, DWORD PTR __Count$[ebp]
	push	eax
	call	??$_Get_size_of_n@$03@std@@YAII@Z	; std::_Get_size_of_n<4>
	add	esp, 4
	push	eax
	call	??$_Allocate@$07U_Default_allocate_traits@std@@@std@@YAPAXI@Z ; std::_Allocate<8,std::_Default_allocate_traits>
	add	esp, 4

; 955  :     }

	add	esp, 4
	cmp	ebp, esp
	call	__RTC_CheckEsp
	mov	esp, ebp
	pop	ebp
	ret	4
?allocate@?$allocator@PAVFuzzyTerm@@@std@@QAEPAPAVFuzzyTerm@@I@Z ENDP ; std::allocator<FuzzyTerm *>::allocate
_TEXT	ENDS
; Function compile flags: /Odtp /RTCsu
; File C:\Program Files\Microsoft Visual Studio\2022\Community\VC\Tools\MSVC\14.42.34433\include\xmemory
;	COMDAT ?deallocate@?$allocator@PAVFuzzyTerm@@@std@@QAEXQAPAVFuzzyTerm@@I@Z
_TEXT	SEGMENT
_this$ = -4						; size = 4
__Ptr$ = 8						; size = 4
__Count$ = 12						; size = 4
?deallocate@?$allocator@PAVFuzzyTerm@@@std@@QAEXQAPAVFuzzyTerm@@I@Z PROC ; std::allocator<FuzzyTerm *>::deallocate, COMDAT
; _this$ = ecx

; 946  :     _CONSTEXPR20 void deallocate(_Ty* const _Ptr, const size_t _Count) {

	push	ebp
	mov	ebp, esp
	push	ecx
	mov	DWORD PTR [ebp-4], -858993460		; ccccccccH
	mov	DWORD PTR _this$[ebp], ecx
$LN4@deallocate:

; 947  :         _STL_ASSERT(_Ptr != nullptr || _Count == 0, "null pointer cannot point to a block of non-zero size");

	cmp	DWORD PTR __Ptr$[ebp], 0
	jne	SHORT $LN10@deallocate
	cmp	DWORD PTR __Count$[ebp], 0
	jne	SHORT $LN8@deallocate
$LN10@deallocate:
	jmp	SHORT $LN6@deallocate
$LN8@deallocate:
	push	OFFSET ??_C@_0DG@KGHKKGBC@null?5pointer?5cannot?5point?5to?5a?5@
	push	OFFSET ??_C@_02DKCKIIND@?$CFs@
	push	0
	push	947					; 000003b3H
	push	OFFSET ??_C@_0GC@KIHIELAM@C?3?2Program?5Files?2Microsoft?5Visu@
	push	2
	call	__CrtDbgReport
	add	esp, 24					; 00000018H
	cmp	eax, 1
	jne	SHORT $LN12@deallocate
	int	3
$LN12@deallocate:
	push	0
	push	947					; 000003b3H
	push	OFFSET ??_C@_1ME@NMPKGKJL@?$AAC?$AA?3?$AA?2?$AAP?$AAr?$AAo?$AAg?$AAr?$AAa?$AAm?$AA?5?$AAF?$AAi?$AAl?$AAe@
	push	OFFSET ??_C@_11LOCGONAA@@
	push	OFFSET ??_C@_1HA@FACCKGGH@?$AA?$CC?$AAn?$AAu?$AAl?$AAl?$AA?5?$AAp?$AAo?$AAi?$AAn?$AAt?$AAe?$AAr?$AA?5?$AAc@
	call	__invalid_parameter
	add	esp, 20					; 00000014H
	xor	ecx, ecx
	jne	SHORT $LN8@deallocate
$LN6@deallocate:
	xor	edx, edx
	jne	SHORT $LN4@deallocate

; 948  :         // no overflow check on the following multiply; we assume _Allocate did that check
; 949  :         _STD _Deallocate<_New_alignof<_Ty>>(_Ptr, sizeof(_Ty) * _Count);

	mov	eax, DWORD PTR __Count$[ebp]
	shl	eax, 2
	push	eax
	mov	ecx, DWORD PTR __Ptr$[ebp]
	push	ecx
	call	??$_Deallocate@$07@std@@YAXPAXI@Z	; std::_Deallocate<8>
	add	esp, 8

; 950  :     }

	add	esp, 4
	cmp	ebp, esp
	call	__RTC_CheckEsp
	mov	esp, ebp
	pop	ebp
	ret	8
?deallocate@?$allocator@PAVFuzzyTerm@@@std@@QAEXQAPAVFuzzyTerm@@I@Z ENDP ; std::allocator<FuzzyTerm *>::deallocate
_TEXT	ENDS
; Function compile flags: /Odtp /RTCsu
; File C:\Program Files\Microsoft Visual Studio\2022\Community\VC\Tools\MSVC\14.42.34433\include\xmemory
;	COMDAT ??0?$allocator@PAVFuzzyTerm@@@std@@QAE@XZ
_TEXT	SEGMENT
_this$ = -4						; size = 4
??0?$allocator@PAVFuzzyTerm@@@std@@QAE@XZ PROC		; std::allocator<FuzzyTerm *>::allocator<FuzzyTerm *>, COMDAT
; _this$ = ecx

; 938  :     constexpr allocator() noexcept {}

	push	ebp
	mov	ebp, esp
	push	ecx
	mov	DWORD PTR _this$[ebp], ecx
	mov	eax, DWORD PTR _this$[ebp]
	mov	esp, ebp
	pop	ebp
	ret	0
??0?$allocator@PAVFuzzyTerm@@@std@@QAE@XZ ENDP		; std::allocator<FuzzyTerm *>::allocator<FuzzyTerm *>
_TEXT	ENDS
; Function compile flags: /Odtp /RTCsu
;	COMDAT ??_GFuzzyTerm@@UAEPAXI@Z
_TEXT	SEGMENT
_this$ = -4						; size = 4
___flags$ = 8						; size = 4
??_GFuzzyTerm@@UAEPAXI@Z PROC				; FuzzyTerm::`scalar deleting destructor', COMDAT
; _this$ = ecx
	push	ebp
	mov	ebp, esp
	push	ecx
	mov	DWORD PTR [ebp-4], -858993460		; ccccccccH
	mov	DWORD PTR _this$[ebp], ecx
	mov	ecx, DWORD PTR _this$[ebp]
	call	??1FuzzyTerm@@UAE@XZ			; FuzzyTerm::~FuzzyTerm
	mov	eax, DWORD PTR ___flags$[ebp]
	and	eax, 1
	je	SHORT $LN2@scalar
	push	4
	mov	ecx, DWORD PTR _this$[ebp]
	push	ecx
	call	??3@YAXPAXI@Z				; operator delete
	add	esp, 8
$LN2@scalar:
	mov	eax, DWORD PTR _this$[ebp]
	add	esp, 4
	cmp	ebp, esp
	call	__RTC_CheckEsp
	mov	esp, ebp
	pop	ebp
	ret	4
??_GFuzzyTerm@@UAEPAXI@Z ENDP				; FuzzyTerm::`scalar deleting destructor'
_TEXT	ENDS
; Function compile flags: /Odtp /RTCsu
;	COMDAT ??0FuzzyTerm@@QAE@XZ
_TEXT	SEGMENT
_this$ = -4						; size = 4
??0FuzzyTerm@@QAE@XZ PROC				; FuzzyTerm::FuzzyTerm, COMDAT
; _this$ = ecx
	push	ebp
	mov	ebp, esp
	push	ecx
	mov	DWORD PTR _this$[ebp], ecx
	mov	eax, DWORD PTR _this$[ebp]
	mov	DWORD PTR [eax], OFFSET ??_7FuzzyTerm@@6B@
	mov	eax, DWORD PTR _this$[ebp]
	mov	esp, ebp
	pop	ebp
	ret	0
??0FuzzyTerm@@QAE@XZ ENDP				; FuzzyTerm::FuzzyTerm
_TEXT	ENDS
; Function compile flags: /Odtp /RTCsu
; File C:\Users\rpg26\OneDrive\Desktop\Source\VS2010\Common\fuzzy\FuzzyTerm.h
;	COMDAT ??1FuzzyTerm@@UAE@XZ
_TEXT	SEGMENT
_this$ = -4						; size = 4
??1FuzzyTerm@@UAE@XZ PROC				; FuzzyTerm::~FuzzyTerm, COMDAT
; _this$ = ecx

; 17   :   virtual ~FuzzyTerm(){}

	push	ebp
	mov	ebp, esp
	push	ecx
	mov	DWORD PTR _this$[ebp], ecx
	mov	eax, DWORD PTR _this$[ebp]
	mov	DWORD PTR [eax], OFFSET ??_7FuzzyTerm@@6B@
	mov	esp, ebp
	pop	ebp
	ret	0
??1FuzzyTerm@@UAE@XZ ENDP				; FuzzyTerm::~FuzzyTerm
_TEXT	ENDS
; Function compile flags: /Odtp /RTCsu
; File C:\Program Files\Microsoft Visual Studio\2022\Community\VC\Tools\MSVC\14.42.34433\include\utility
;	COMDAT ??$exchange@PAU_Iterator_base12@std@@$$T@std@@YAPAU_Iterator_base12@0@AAPAU10@$$QA$$T@Z
_TEXT	SEGMENT
__Old_val$ = -4						; size = 4
__Val$ = 8						; size = 4
__New_val$ = 12						; size = 4
??$exchange@PAU_Iterator_base12@std@@$$T@std@@YAPAU_Iterator_base12@0@AAPAU10@$$QA$$T@Z PROC ; std::exchange<std::_Iterator_base12 *,std::nullptr_t>, COMDAT

; 762  :     conjunction_v<is_nothrow_move_constructible<_Ty>, is_nothrow_assignable<_Ty&, _Other>>) {

	push	ebp
	mov	ebp, esp
	push	ecx

; 763  :     // assign _New_val to _Val, return previous _Val
; 764  :     _Ty _Old_val = static_cast<_Ty&&>(_Val);

	mov	eax, DWORD PTR __Val$[ebp]
	mov	ecx, DWORD PTR [eax]
	mov	DWORD PTR __Old_val$[ebp], ecx

; 765  :     _Val         = static_cast<_Other&&>(_New_val);

	mov	edx, DWORD PTR __Val$[ebp]
	mov	eax, DWORD PTR __New_val$[ebp]
	mov	ecx, DWORD PTR [eax]
	mov	DWORD PTR [edx], ecx

; 766  :     return _Old_val;

	mov	eax, DWORD PTR __Old_val$[ebp]

; 767  : }

	mov	esp, ebp
	pop	ebp
	ret	0
??$exchange@PAU_Iterator_base12@std@@$$T@std@@YAPAU_Iterator_base12@0@AAPAU10@$$QA$$T@Z ENDP ; std::exchange<std::_Iterator_base12 *,std::nullptr_t>
_TEXT	ENDS
; Function compile flags: /Odtp /RTCsu
; File C:\Program Files\Microsoft Visual Studio\2022\Community\VC\Tools\MSVC\14.42.34433\include\xmemory
;	COMDAT ?_Orphan_me_locked_v3@_Iterator_base12@std@@AAEXXZ
_TEXT	SEGMENT
__Lock$ = -12						; size = 4
_this$ = -4						; size = 4
?_Orphan_me_locked_v3@_Iterator_base12@std@@AAEXXZ PROC	; std::_Iterator_base12::_Orphan_me_locked_v3, COMDAT
; _this$ = ecx

; 1338 :     void _Orphan_me_locked_v3() noexcept {

	push	ebp
	mov	ebp, esp
	sub	esp, 16					; 00000010H
	mov	eax, -858993460				; ccccccccH
	mov	DWORD PTR [ebp-16], eax
	mov	DWORD PTR [ebp-12], eax
	mov	DWORD PTR [ebp-8], eax
	mov	DWORD PTR [ebp-4], eax
	mov	DWORD PTR _this$[ebp], ecx

; 1339 :         _Lockit _Lock(_LOCK_DEBUG);

	push	3
	lea	ecx, DWORD PTR __Lock$[ebp]
	call	??0_Lockit@std@@QAE@H@Z			; std::_Lockit::_Lockit

; 1340 :         _Orphan_me_unlocked_v3();

	mov	ecx, DWORD PTR _this$[ebp]
	call	?_Orphan_me_unlocked_v3@_Iterator_base12@std@@AAEXXZ ; std::_Iterator_base12::_Orphan_me_unlocked_v3

; 1341 :     }

	lea	ecx, DWORD PTR __Lock$[ebp]
	call	??1_Lockit@std@@QAE@XZ			; std::_Lockit::~_Lockit
	npad	1
	push	edx
	mov	ecx, ebp
	push	eax
	lea	edx, DWORD PTR $LN6@Orphan_me_
	call	@_RTC_CheckStackVars@8
	pop	eax
	pop	edx
	add	esp, 16					; 00000010H
	cmp	ebp, esp
	call	__RTC_CheckEsp
	mov	esp, ebp
	pop	ebp
	ret	0
$LN6@Orphan_me_:
	DD	1
	DD	$LN5@Orphan_me_
$LN5@Orphan_me_:
	DD	-12					; fffffff4H
	DD	4
	DD	$LN4@Orphan_me_
$LN4@Orphan_me_:
	DB	95					; 0000005fH
	DB	76					; 0000004cH
	DB	111					; 0000006fH
	DB	99					; 00000063H
	DB	107					; 0000006bH
	DB	0
?_Orphan_me_locked_v3@_Iterator_base12@std@@AAEXXZ ENDP	; std::_Iterator_base12::_Orphan_me_locked_v3
_TEXT	ENDS
; Function compile flags: /Odtp /RTCsu
; File C:\Program Files\Microsoft Visual Studio\2022\Community\VC\Tools\MSVC\14.42.34433\include\xmemory
;	COMDAT ?_Orphan_me_unlocked_v3@_Iterator_base12@std@@AAEXXZ
_TEXT	SEGMENT
__Pnext$ = -8						; size = 4
_this$ = -4						; size = 4
?_Orphan_me_unlocked_v3@_Iterator_base12@std@@AAEXXZ PROC ; std::_Iterator_base12::_Orphan_me_unlocked_v3, COMDAT
; _this$ = ecx

; 1322 :     _CONSTEXPR20 void _Orphan_me_unlocked_v3() noexcept {

	push	ebp
	mov	ebp, esp
	sub	esp, 8
	mov	DWORD PTR [ebp-8], -858993460		; ccccccccH
	mov	DWORD PTR [ebp-4], -858993460		; ccccccccH
	mov	DWORD PTR _this$[ebp], ecx

; 1323 :         if (!_Myproxy) { // already orphaned

	mov	eax, DWORD PTR _this$[ebp]
	cmp	DWORD PTR [eax], 0
	jne	SHORT $LN10@Orphan_me_

; 1324 :             return;

	jmp	$LN1@Orphan_me_
$LN10@Orphan_me_:

; 1325 :         }
; 1326 : 
; 1327 :         // adopted, remove self from list
; 1328 :         _Iterator_base12** _Pnext = &_Myproxy->_Myfirstiter;

	mov	ecx, DWORD PTR _this$[ebp]
	mov	edx, DWORD PTR [ecx]
	add	edx, 4
	mov	DWORD PTR __Pnext$[ebp], edx
$LN2@Orphan_me_:

; 1329 :         while (*_Pnext && *_Pnext != this) {

	mov	eax, DWORD PTR __Pnext$[ebp]
	cmp	DWORD PTR [eax], 0
	je	SHORT $LN3@Orphan_me_
	mov	ecx, DWORD PTR __Pnext$[ebp]
	mov	edx, DWORD PTR [ecx]
	cmp	edx, DWORD PTR _this$[ebp]
	je	SHORT $LN3@Orphan_me_

; 1330 :             _Pnext = &(*_Pnext)->_Mynextiter;

	mov	eax, DWORD PTR __Pnext$[ebp]
	mov	ecx, DWORD PTR [eax]
	add	ecx, 4
	mov	DWORD PTR __Pnext$[ebp], ecx

; 1331 :         }

	jmp	SHORT $LN2@Orphan_me_
$LN3@Orphan_me_:

; 1332 : 
; 1333 :         _STL_VERIFY(*_Pnext, "ITERATOR LIST CORRUPTED!");

	mov	edx, DWORD PTR __Pnext$[ebp]
	cmp	DWORD PTR [edx], 0
	je	SHORT $LN11@Orphan_me_
	jmp	SHORT $LN8@Orphan_me_
$LN11@Orphan_me_:
	push	OFFSET ??_C@_0BJ@LFDBABJJ@ITERATOR?5LIST?5CORRUPTED?$CB@
	push	OFFSET ??_C@_02DKCKIIND@?$CFs@
	push	0
	push	1333					; 00000535H
	push	OFFSET ??_C@_0GC@KIHIELAM@C?3?2Program?5Files?2Microsoft?5Visu@
	push	2
	call	__CrtDbgReport
	add	esp, 24					; 00000018H
	cmp	eax, 1
	jne	SHORT $LN14@Orphan_me_
	int	3
$LN14@Orphan_me_:
	push	0
	push	1333					; 00000535H
	push	OFFSET ??_C@_1ME@NMPKGKJL@?$AAC?$AA?3?$AA?2?$AAP?$AAr?$AAo?$AAg?$AAr?$AAa?$AAm?$AA?5?$AAF?$AAi?$AAl?$AAe@
	push	OFFSET ??_C@_11LOCGONAA@@
	push	OFFSET ??_C@_1DG@PLBPCAEM@?$AA?$CC?$AAI?$AAT?$AAE?$AAR?$AAA?$AAT?$AAO?$AAR?$AA?5?$AAL?$AAI?$AAS?$AAT?$AA?5@
	call	__invalid_parameter
	add	esp, 20					; 00000014H
	xor	ecx, ecx
	jne	SHORT $LN11@Orphan_me_
$LN8@Orphan_me_:
	xor	edx, edx
	jne	SHORT $LN3@Orphan_me_

; 1334 :         *_Pnext  = _Mynextiter;

	mov	eax, DWORD PTR __Pnext$[ebp]
	mov	ecx, DWORD PTR _this$[ebp]
	mov	edx, DWORD PTR [ecx+4]
	mov	DWORD PTR [eax], edx

; 1335 :         _Myproxy = nullptr;

	mov	eax, DWORD PTR _this$[ebp]
	mov	DWORD PTR [eax], 0
$LN1@Orphan_me_:

; 1336 :     }

	add	esp, 8
	cmp	ebp, esp
	call	__RTC_CheckEsp
	mov	esp, ebp
	pop	ebp
	ret	0
?_Orphan_me_unlocked_v3@_Iterator_base12@std@@AAEXXZ ENDP ; std::_Iterator_base12::_Orphan_me_unlocked_v3
_TEXT	ENDS
; Function compile flags: /Odtp /RTCsu
; File C:\Program Files\Microsoft Visual Studio\2022\Community\VC\Tools\MSVC\14.42.34433\include\xmemory
;	COMDAT ?_Adopt_locked@_Iterator_base12@std@@AAEXPBU_Container_base12@2@@Z
_TEXT	SEGMENT
__Lock$ = -12						; size = 4
_this$ = -4						; size = 4
__Parent$ = 8						; size = 4
?_Adopt_locked@_Iterator_base12@std@@AAEXPBU_Container_base12@2@@Z PROC ; std::_Iterator_base12::_Adopt_locked, COMDAT
; _this$ = ecx

; 1317 :     void _Adopt_locked(const _Container_base12* _Parent) noexcept {

	push	ebp
	mov	ebp, esp
	sub	esp, 16					; 00000010H
	mov	eax, -858993460				; ccccccccH
	mov	DWORD PTR [ebp-16], eax
	mov	DWORD PTR [ebp-12], eax
	mov	DWORD PTR [ebp-8], eax
	mov	DWORD PTR [ebp-4], eax
	mov	DWORD PTR _this$[ebp], ecx

; 1318 :         _Lockit _Lock(_LOCK_DEBUG);

	push	3
	lea	ecx, DWORD PTR __Lock$[ebp]
	call	??0_Lockit@std@@QAE@H@Z			; std::_Lockit::_Lockit

; 1319 :         _Adopt_unlocked(_Parent);

	mov	eax, DWORD PTR __Parent$[ebp]
	push	eax
	mov	ecx, DWORD PTR _this$[ebp]
	call	?_Adopt_unlocked@_Iterator_base12@std@@AAEXPBU_Container_base12@2@@Z ; std::_Iterator_base12::_Adopt_unlocked

; 1320 :     }

	lea	ecx, DWORD PTR __Lock$[ebp]
	call	??1_Lockit@std@@QAE@XZ			; std::_Lockit::~_Lockit
	npad	1
	push	edx
	mov	ecx, ebp
	push	eax
	lea	edx, DWORD PTR $LN6@Adopt_lock
	call	@_RTC_CheckStackVars@8
	pop	eax
	pop	edx
	add	esp, 16					; 00000010H
	cmp	ebp, esp
	call	__RTC_CheckEsp
	mov	esp, ebp
	pop	ebp
	ret	4
	npad	2
$LN6@Adopt_lock:
	DD	1
	DD	$LN5@Adopt_lock
$LN5@Adopt_lock:
	DD	-12					; fffffff4H
	DD	4
	DD	$LN4@Adopt_lock
$LN4@Adopt_lock:
	DB	95					; 0000005fH
	DB	76					; 0000004cH
	DB	111					; 0000006fH
	DB	99					; 00000063H
	DB	107					; 0000006bH
	DB	0
?_Adopt_locked@_Iterator_base12@std@@AAEXPBU_Container_base12@2@@Z ENDP ; std::_Iterator_base12::_Adopt_locked
_TEXT	ENDS
; Function compile flags: /Odtp /RTCsu
; File C:\Program Files\Microsoft Visual Studio\2022\Community\VC\Tools\MSVC\14.42.34433\include\xmemory
;	COMDAT ?_Adopt_unlocked@_Iterator_base12@std@@AAEXPBU_Container_base12@2@@Z
_TEXT	SEGMENT
__Parent_proxy$ = -8					; size = 4
_this$ = -4						; size = 4
__Parent$ = 8						; size = 4
?_Adopt_unlocked@_Iterator_base12@std@@AAEXPBU_Container_base12@2@@Z PROC ; std::_Iterator_base12::_Adopt_unlocked, COMDAT
; _this$ = ecx

; 1300 :     _CONSTEXPR20 void _Adopt_unlocked(const _Container_base12* _Parent) noexcept {

	push	ebp
	mov	ebp, esp
	sub	esp, 8
	mov	DWORD PTR [ebp-8], -858993460		; ccccccccH
	mov	DWORD PTR [ebp-4], -858993460		; ccccccccH
	mov	DWORD PTR _this$[ebp], ecx

; 1301 :         if (!_Parent) {

	cmp	DWORD PTR __Parent$[ebp], 0
	jne	SHORT $LN2@Adopt_unlo

; 1302 :             _Orphan_me_unlocked_v3();

	mov	ecx, DWORD PTR _this$[ebp]
	call	?_Orphan_me_unlocked_v3@_Iterator_base12@std@@AAEXXZ ; std::_Iterator_base12::_Orphan_me_unlocked_v3
	npad	1

; 1303 :             return;

	jmp	SHORT $LN1@Adopt_unlo
$LN2@Adopt_unlo:

; 1304 :         }
; 1305 : 
; 1306 :         _Container_proxy* _Parent_proxy = _Parent->_Myproxy;

	mov	eax, DWORD PTR __Parent$[ebp]
	mov	ecx, DWORD PTR [eax]
	mov	DWORD PTR __Parent_proxy$[ebp], ecx

; 1307 :         if (_Myproxy != _Parent_proxy) { // change parentage

	mov	edx, DWORD PTR _this$[ebp]
	mov	eax, DWORD PTR [edx]
	cmp	eax, DWORD PTR __Parent_proxy$[ebp]
	je	SHORT $LN3@Adopt_unlo

; 1308 :             if (_Myproxy) { // adopted, remove self from list

	mov	ecx, DWORD PTR _this$[ebp]
	cmp	DWORD PTR [ecx], 0
	je	SHORT $LN4@Adopt_unlo

; 1309 :                 _Orphan_me_unlocked_v3();

	mov	ecx, DWORD PTR _this$[ebp]
	call	?_Orphan_me_unlocked_v3@_Iterator_base12@std@@AAEXXZ ; std::_Iterator_base12::_Orphan_me_unlocked_v3
	npad	1
$LN4@Adopt_unlo:

; 1310 :             }
; 1311 :             _Mynextiter                 = _Parent_proxy->_Myfirstiter;

	mov	edx, DWORD PTR _this$[ebp]
	mov	eax, DWORD PTR __Parent_proxy$[ebp]
	mov	ecx, DWORD PTR [eax+4]
	mov	DWORD PTR [edx+4], ecx

; 1312 :             _Parent_proxy->_Myfirstiter = this;

	mov	edx, DWORD PTR __Parent_proxy$[ebp]
	mov	eax, DWORD PTR _this$[ebp]
	mov	DWORD PTR [edx+4], eax

; 1313 :             _Myproxy                    = _Parent_proxy;

	mov	ecx, DWORD PTR _this$[ebp]
	mov	edx, DWORD PTR __Parent_proxy$[ebp]
	mov	DWORD PTR [ecx], edx
$LN3@Adopt_unlo:
$LN1@Adopt_unlo:

; 1314 :         }
; 1315 :     }

	add	esp, 8
	cmp	ebp, esp
	call	__RTC_CheckEsp
	mov	esp, ebp
	pop	ebp
	ret	4
?_Adopt_unlocked@_Iterator_base12@std@@AAEXPBU_Container_base12@2@@Z ENDP ; std::_Iterator_base12::_Adopt_unlocked
_TEXT	ENDS
; Function compile flags: /Odtp /RTCsu
; File C:\Program Files\Microsoft Visual Studio\2022\Community\VC\Tools\MSVC\14.42.34433\include\xmemory
;	COMDAT ?_Assign_locked@_Iterator_base12@std@@AAEXABU12@@Z
_TEXT	SEGMENT
__Lock$ = -12						; size = 4
_this$ = -4						; size = 4
__Right$ = 8						; size = 4
?_Assign_locked@_Iterator_base12@std@@AAEXABU12@@Z PROC	; std::_Iterator_base12::_Assign_locked, COMDAT
; _this$ = ecx

; 1295 :     void _Assign_locked(const _Iterator_base12& _Right) noexcept {

	push	ebp
	mov	ebp, esp
	sub	esp, 16					; 00000010H
	mov	eax, -858993460				; ccccccccH
	mov	DWORD PTR [ebp-16], eax
	mov	DWORD PTR [ebp-12], eax
	mov	DWORD PTR [ebp-8], eax
	mov	DWORD PTR [ebp-4], eax
	mov	DWORD PTR _this$[ebp], ecx

; 1296 :         _Lockit _Lock(_LOCK_DEBUG);

	push	3
	lea	ecx, DWORD PTR __Lock$[ebp]
	call	??0_Lockit@std@@QAE@H@Z			; std::_Lockit::_Lockit

; 1297 :         _Assign_unlocked(_Right);

	mov	eax, DWORD PTR __Right$[ebp]
	push	eax
	mov	ecx, DWORD PTR _this$[ebp]
	call	?_Assign_unlocked@_Iterator_base12@std@@AAEXABU12@@Z ; std::_Iterator_base12::_Assign_unlocked

; 1298 :     }

	lea	ecx, DWORD PTR __Lock$[ebp]
	call	??1_Lockit@std@@QAE@XZ			; std::_Lockit::~_Lockit
	npad	1
	push	edx
	mov	ecx, ebp
	push	eax
	lea	edx, DWORD PTR $LN6@Assign_loc
	call	@_RTC_CheckStackVars@8
	pop	eax
	pop	edx
	add	esp, 16					; 00000010H
	cmp	ebp, esp
	call	__RTC_CheckEsp
	mov	esp, ebp
	pop	ebp
	ret	4
	npad	2
$LN6@Assign_loc:
	DD	1
	DD	$LN5@Assign_loc
$LN5@Assign_loc:
	DD	-12					; fffffff4H
	DD	4
	DD	$LN4@Assign_loc
$LN4@Assign_loc:
	DB	95					; 0000005fH
	DB	76					; 0000004cH
	DB	111					; 0000006fH
	DB	99					; 00000063H
	DB	107					; 0000006bH
	DB	0
?_Assign_locked@_Iterator_base12@std@@AAEXABU12@@Z ENDP	; std::_Iterator_base12::_Assign_locked
_TEXT	ENDS
; Function compile flags: /Odtp /RTCsu
; File C:\Program Files\Microsoft Visual Studio\2022\Community\VC\Tools\MSVC\14.42.34433\include\xmemory
;	COMDAT ?_Assign_unlocked@_Iterator_base12@std@@AAEXABU12@@Z
_TEXT	SEGMENT
_this$ = -4						; size = 4
__Right$ = 8						; size = 4
?_Assign_unlocked@_Iterator_base12@std@@AAEXABU12@@Z PROC ; std::_Iterator_base12::_Assign_unlocked, COMDAT
; _this$ = ecx

; 1283 :     _CONSTEXPR20 void _Assign_unlocked(const _Iterator_base12& _Right) noexcept {

	push	ebp
	mov	ebp, esp
	push	ecx
	mov	DWORD PTR [ebp-4], -858993460		; ccccccccH
	mov	DWORD PTR _this$[ebp], ecx

; 1284 :         if (_Myproxy == _Right._Myproxy) {

	mov	eax, DWORD PTR _this$[ebp]
	mov	ecx, DWORD PTR __Right$[ebp]
	mov	edx, DWORD PTR [eax]
	cmp	edx, DWORD PTR [ecx]
	jne	SHORT $LN2@Assign_unl

; 1285 :             return;

	jmp	SHORT $LN1@Assign_unl
$LN2@Assign_unl:

; 1286 :         }
; 1287 : 
; 1288 :         if (_Right._Myproxy) {

	mov	eax, DWORD PTR __Right$[ebp]
	cmp	DWORD PTR [eax], 0
	je	SHORT $LN3@Assign_unl

; 1289 :             _Adopt_unlocked(_Right._Myproxy->_Mycont);

	mov	ecx, DWORD PTR __Right$[ebp]
	mov	edx, DWORD PTR [ecx]
	mov	eax, DWORD PTR [edx]
	push	eax
	mov	ecx, DWORD PTR _this$[ebp]
	call	?_Adopt_unlocked@_Iterator_base12@std@@AAEXPBU_Container_base12@2@@Z ; std::_Iterator_base12::_Adopt_unlocked
	npad	1

; 1290 :         } else { // becoming invalid, disown current parent

	jmp	SHORT $LN4@Assign_unl
$LN3@Assign_unl:

; 1291 :             _Orphan_me_unlocked_v3();

	mov	ecx, DWORD PTR _this$[ebp]
	call	?_Orphan_me_unlocked_v3@_Iterator_base12@std@@AAEXXZ ; std::_Iterator_base12::_Orphan_me_unlocked_v3
	npad	1
$LN4@Assign_unl:
$LN1@Assign_unl:

; 1292 :         }
; 1293 :     }

	add	esp, 4
	cmp	ebp, esp
	call	__RTC_CheckEsp
	mov	esp, ebp
	pop	ebp
	ret	4
?_Assign_unlocked@_Iterator_base12@std@@AAEXABU12@@Z ENDP ; std::_Iterator_base12::_Assign_unlocked
_TEXT	ENDS
; Function compile flags: /Odtp /RTCsu
; File C:\Program Files\Microsoft Visual Studio\2022\Community\VC\Tools\MSVC\14.42.34433\include\xmemory
;	COMDAT ?_Getcont@_Iterator_base12@std@@QBEPBU_Container_base12@2@XZ
_TEXT	SEGMENT
tv68 = -8						; size = 4
_this$ = -4						; size = 4
?_Getcont@_Iterator_base12@std@@QBEPBU_Container_base12@2@XZ PROC ; std::_Iterator_base12::_Getcont, COMDAT
; _this$ = ecx

; 1272 :     _CONSTEXPR20 const _Container_base12* _Getcont() const noexcept {

	push	ebp
	mov	ebp, esp
	sub	esp, 8
	mov	DWORD PTR _this$[ebp], ecx

; 1273 :         return _Myproxy ? _Myproxy->_Mycont : nullptr;

	mov	eax, DWORD PTR _this$[ebp]
	cmp	DWORD PTR [eax], 0
	je	SHORT $LN3@Getcont
	mov	ecx, DWORD PTR _this$[ebp]
	mov	edx, DWORD PTR [ecx]
	mov	eax, DWORD PTR [edx]
	mov	DWORD PTR tv68[ebp], eax
	jmp	SHORT $LN4@Getcont
$LN3@Getcont:
	mov	DWORD PTR tv68[ebp], 0
$LN4@Getcont:
	mov	eax, DWORD PTR tv68[ebp]

; 1274 :     }

	mov	esp, ebp
	pop	ebp
	ret	0
?_Getcont@_Iterator_base12@std@@QBEPBU_Container_base12@2@XZ ENDP ; std::_Iterator_base12::_Getcont
_TEXT	ENDS
; Function compile flags: /Odtp /RTCsu
; File C:\Program Files\Microsoft Visual Studio\2022\Community\VC\Tools\MSVC\14.42.34433\include\xmemory
;	COMDAT ?_Adopt@_Iterator_base12@std@@QAEXPBU_Container_base12@2@@Z
_TEXT	SEGMENT
_this$ = -4						; size = 4
__Parent$ = 8						; size = 4
?_Adopt@_Iterator_base12@std@@QAEXPBU_Container_base12@2@@Z PROC ; std::_Iterator_base12::_Adopt, COMDAT
; _this$ = ecx

; 1252 :     _CONSTEXPR20 void _Adopt(const _Container_base12* _Parent) noexcept {

	push	ebp
	mov	ebp, esp
	push	ecx
	mov	DWORD PTR [ebp-4], -858993460		; ccccccccH
	mov	DWORD PTR _this$[ebp], ecx

; 1253 : #if _HAS_CXX20
; 1254 :         if (_STD is_constant_evaluated()) {
; 1255 :             _Adopt_unlocked(_Parent);
; 1256 :         } else
; 1257 : #endif // _HAS_CXX20
; 1258 :         {
; 1259 :             _Adopt_locked(_Parent);

	mov	eax, DWORD PTR __Parent$[ebp]
	push	eax
	mov	ecx, DWORD PTR _this$[ebp]
	call	?_Adopt_locked@_Iterator_base12@std@@AAEXPBU_Container_base12@2@@Z ; std::_Iterator_base12::_Adopt_locked
	npad	1

; 1260 :         }
; 1261 :     }

	add	esp, 4
	cmp	ebp, esp
	call	__RTC_CheckEsp
	mov	esp, ebp
	pop	ebp
	ret	4
?_Adopt@_Iterator_base12@std@@QAEXPBU_Container_base12@2@@Z ENDP ; std::_Iterator_base12::_Adopt
_TEXT	ENDS
; Function compile flags: /Odtp /RTCsu
; File C:\Program Files\Microsoft Visual Studio\2022\Community\VC\Tools\MSVC\14.42.34433\include\xmemory
;	COMDAT ??1_Iterator_base12@std@@QAE@XZ
_TEXT	SEGMENT
_this$ = -4						; size = 4
??1_Iterator_base12@std@@QAE@XZ PROC			; std::_Iterator_base12::~_Iterator_base12, COMDAT
; _this$ = ecx

; 1241 :     _CONSTEXPR20 ~_Iterator_base12() noexcept {

	push	ebp
	mov	ebp, esp
	push	ecx
	mov	DWORD PTR [ebp-4], -858993460		; ccccccccH
	mov	DWORD PTR _this$[ebp], ecx

; 1242 : #if _HAS_CXX20
; 1243 :         if (_STD is_constant_evaluated()) {
; 1244 :             _Orphan_me_unlocked_v3();
; 1245 :         } else
; 1246 : #endif // _HAS_CXX20
; 1247 :         {
; 1248 :             _Orphan_me_locked_v3();

	mov	ecx, DWORD PTR _this$[ebp]
	call	?_Orphan_me_locked_v3@_Iterator_base12@std@@AAEXXZ ; std::_Iterator_base12::_Orphan_me_locked_v3
	npad	1

; 1249 :         }
; 1250 :     }

	add	esp, 4
	cmp	ebp, esp
	call	__RTC_CheckEsp
	mov	esp, ebp
	pop	ebp
	ret	0
??1_Iterator_base12@std@@QAE@XZ ENDP			; std::_Iterator_base12::~_Iterator_base12
_TEXT	ENDS
; Function compile flags: /Odtp /RTCsu
; File C:\Program Files\Microsoft Visual Studio\2022\Community\VC\Tools\MSVC\14.42.34433\include\xmemory
;	COMDAT ??4_Iterator_base12@std@@QAEAAU01@ABU01@@Z
_TEXT	SEGMENT
_this$ = -4						; size = 4
__Right$ = 8						; size = 4
??4_Iterator_base12@std@@QAEAAU01@ABU01@@Z PROC		; std::_Iterator_base12::operator=, COMDAT
; _this$ = ecx

; 1224 :     _CONSTEXPR20 _Iterator_base12& operator=(const _Iterator_base12& _Right) noexcept {

	push	ebp
	mov	ebp, esp
	push	ecx
	mov	DWORD PTR [ebp-4], -858993460		; ccccccccH
	mov	DWORD PTR _this$[ebp], ecx

; 1225 : #if _ITERATOR_DEBUG_LEVEL == 2
; 1226 : #if _HAS_CXX20
; 1227 :         if (_STD is_constant_evaluated()) {
; 1228 :             _Assign_unlocked(_Right);
; 1229 :         } else
; 1230 : #endif // _HAS_CXX20
; 1231 :         {
; 1232 :             _Assign_locked(_Right);

	mov	eax, DWORD PTR __Right$[ebp]
	push	eax
	mov	ecx, DWORD PTR _this$[ebp]
	call	?_Assign_locked@_Iterator_base12@std@@AAEXABU12@@Z ; std::_Iterator_base12::_Assign_locked
	npad	1

; 1233 :         }
; 1234 : #else // ^^^ _ITERATOR_DEBUG_LEVEL == 2 / _ITERATOR_DEBUG_LEVEL != 2 vvv
; 1235 :         _Myproxy = _Right._Myproxy;
; 1236 : #endif // ^^^ _ITERATOR_DEBUG_LEVEL != 2 ^^^
; 1237 :         return *this;

	mov	eax, DWORD PTR _this$[ebp]

; 1238 :     }

	add	esp, 4
	cmp	ebp, esp
	call	__RTC_CheckEsp
	mov	esp, ebp
	pop	ebp
	ret	4
??4_Iterator_base12@std@@QAEAAU01@ABU01@@Z ENDP		; std::_Iterator_base12::operator=
_TEXT	ENDS
; Function compile flags: /Odtp /RTCsu
; File C:\Program Files\Microsoft Visual Studio\2022\Community\VC\Tools\MSVC\14.42.34433\include\xmemory
;	COMDAT ??0_Iterator_base12@std@@QAE@XZ
_TEXT	SEGMENT
_this$ = -4						; size = 4
??0_Iterator_base12@std@@QAE@XZ PROC			; std::_Iterator_base12::_Iterator_base12, COMDAT
; _this$ = ecx

; 1218 :     _CONSTEXPR20 _Iterator_base12() noexcept = default; // construct orphaned iterator

	push	ebp
	mov	ebp, esp
	push	ecx
	mov	DWORD PTR _this$[ebp], ecx

; 1219 : 
; 1220 :     _CONSTEXPR20 _Iterator_base12(const _Iterator_base12& _Right) noexcept {
; 1221 :         *this = _Right;
; 1222 :     }
; 1223 : 
; 1224 :     _CONSTEXPR20 _Iterator_base12& operator=(const _Iterator_base12& _Right) noexcept {
; 1225 : #if _ITERATOR_DEBUG_LEVEL == 2
; 1226 : #if _HAS_CXX20
; 1227 :         if (_STD is_constant_evaluated()) {
; 1228 :             _Assign_unlocked(_Right);
; 1229 :         } else
; 1230 : #endif // _HAS_CXX20
; 1231 :         {
; 1232 :             _Assign_locked(_Right);
; 1233 :         }
; 1234 : #else // ^^^ _ITERATOR_DEBUG_LEVEL == 2 / _ITERATOR_DEBUG_LEVEL != 2 vvv
; 1235 :         _Myproxy = _Right._Myproxy;
; 1236 : #endif // ^^^ _ITERATOR_DEBUG_LEVEL != 2 ^^^
; 1237 :         return *this;
; 1238 :     }
; 1239 : 
; 1240 : #if _ITERATOR_DEBUG_LEVEL == 2
; 1241 :     _CONSTEXPR20 ~_Iterator_base12() noexcept {
; 1242 : #if _HAS_CXX20
; 1243 :         if (_STD is_constant_evaluated()) {
; 1244 :             _Orphan_me_unlocked_v3();
; 1245 :         } else
; 1246 : #endif // _HAS_CXX20
; 1247 :         {
; 1248 :             _Orphan_me_locked_v3();
; 1249 :         }
; 1250 :     }
; 1251 : 
; 1252 :     _CONSTEXPR20 void _Adopt(const _Container_base12* _Parent) noexcept {
; 1253 : #if _HAS_CXX20
; 1254 :         if (_STD is_constant_evaluated()) {
; 1255 :             _Adopt_unlocked(_Parent);
; 1256 :         } else
; 1257 : #endif // _HAS_CXX20
; 1258 :         {
; 1259 :             _Adopt_locked(_Parent);
; 1260 :         }
; 1261 :     }
; 1262 : #else // ^^^ _ITERATOR_DEBUG_LEVEL == 2 / _ITERATOR_DEBUG_LEVEL != 2 vvv
; 1263 :     _CONSTEXPR20 void _Adopt(const _Container_base12* _Parent) noexcept {
; 1264 :         if (_Parent) { // have a parent, do adoption
; 1265 :             _Myproxy = _Parent->_Myproxy;
; 1266 :         } else { // no future parent, just disown current parent
; 1267 :             _Myproxy = nullptr;
; 1268 :         }
; 1269 :     }
; 1270 : #endif // ^^^ _ITERATOR_DEBUG_LEVEL != 2 ^^^
; 1271 : 
; 1272 :     _CONSTEXPR20 const _Container_base12* _Getcont() const noexcept {
; 1273 :         return _Myproxy ? _Myproxy->_Mycont : nullptr;
; 1274 :     }
; 1275 : 
; 1276 :     static constexpr bool _Unwrap_when_unverified = _ITERATOR_DEBUG_LEVEL == 0;
; 1277 : 
; 1278 :     mutable _Container_proxy* _Myproxy    = nullptr;

	mov	eax, DWORD PTR _this$[ebp]
	mov	DWORD PTR [eax], 0

; 1279 :     mutable _Iterator_base12* _Mynextiter = nullptr;

	mov	ecx, DWORD PTR _this$[ebp]
	mov	DWORD PTR [ecx+4], 0

; 1218 :     _CONSTEXPR20 _Iterator_base12() noexcept = default; // construct orphaned iterator

	mov	eax, DWORD PTR _this$[ebp]
	mov	esp, ebp
	pop	ebp
	ret	0
??0_Iterator_base12@std@@QAE@XZ ENDP			; std::_Iterator_base12::_Iterator_base12
_TEXT	ENDS
; Function compile flags: /Odtp /RTCsu
; File C:\Program Files\Microsoft Visual Studio\2022\Community\VC\Tools\MSVC\14.42.34433\include\xmemory
;	COMDAT ?_Orphan_all_locked_v3@_Container_base12@std@@AAEXXZ
_TEXT	SEGMENT
__Lock$ = -12						; size = 4
_this$ = -4						; size = 4
?_Orphan_all_locked_v3@_Container_base12@std@@AAEXXZ PROC ; std::_Container_base12::_Orphan_all_locked_v3, COMDAT
; _this$ = ecx

; 1205 :     void _Orphan_all_locked_v3() noexcept {

	push	ebp
	mov	ebp, esp
	sub	esp, 16					; 00000010H
	mov	eax, -858993460				; ccccccccH
	mov	DWORD PTR [ebp-16], eax
	mov	DWORD PTR [ebp-12], eax
	mov	DWORD PTR [ebp-8], eax
	mov	DWORD PTR [ebp-4], eax
	mov	DWORD PTR _this$[ebp], ecx

; 1206 :         _Lockit _Lock(_LOCK_DEBUG);

	push	3
	lea	ecx, DWORD PTR __Lock$[ebp]
	call	??0_Lockit@std@@QAE@H@Z			; std::_Lockit::_Lockit

; 1207 :         _Orphan_all_unlocked_v3();

	mov	ecx, DWORD PTR _this$[ebp]
	call	?_Orphan_all_unlocked_v3@_Container_base12@std@@AAEXXZ ; std::_Container_base12::_Orphan_all_unlocked_v3

; 1208 :     }

	lea	ecx, DWORD PTR __Lock$[ebp]
	call	??1_Lockit@std@@QAE@XZ			; std::_Lockit::~_Lockit
	npad	1
	push	edx
	mov	ecx, ebp
	push	eax
	lea	edx, DWORD PTR $LN6@Orphan_all
	call	@_RTC_CheckStackVars@8
	pop	eax
	pop	edx
	add	esp, 16					; 00000010H
	cmp	ebp, esp
	call	__RTC_CheckEsp
	mov	esp, ebp
	pop	ebp
	ret	0
$LN6@Orphan_all:
	DD	1
	DD	$LN5@Orphan_all
$LN5@Orphan_all:
	DD	-12					; fffffff4H
	DD	4
	DD	$LN4@Orphan_all
$LN4@Orphan_all:
	DB	95					; 0000005fH
	DB	76					; 0000004cH
	DB	111					; 0000006fH
	DB	99					; 00000063H
	DB	107					; 0000006bH
	DB	0
?_Orphan_all_locked_v3@_Container_base12@std@@AAEXXZ ENDP ; std::_Container_base12::_Orphan_all_locked_v3
_TEXT	ENDS
; Function compile flags: /Odtp /RTCsu
; File C:\Program Files\Microsoft Visual Studio\2022\Community\VC\Tools\MSVC\14.42.34433\include\xmemory
;	COMDAT ?_Orphan_all_unlocked_v3@_Container_base12@std@@AAEXXZ
_TEXT	SEGMENT
$T1 = -12						; size = 4
__Pnext$2 = -8						; size = 4
_this$ = -4						; size = 4
?_Orphan_all_unlocked_v3@_Container_base12@std@@AAEXXZ PROC ; std::_Container_base12::_Orphan_all_unlocked_v3, COMDAT
; _this$ = ecx

; 1345 : _CONSTEXPR20 void _Container_base12::_Orphan_all_unlocked_v3() noexcept {

	push	ebp
	mov	ebp, esp
	sub	esp, 12					; 0000000cH
	mov	DWORD PTR [ebp-12], -858993460		; ccccccccH
	mov	DWORD PTR [ebp-8], -858993460		; ccccccccH
	mov	DWORD PTR [ebp-4], -858993460		; ccccccccH
	mov	DWORD PTR _this$[ebp], ecx

; 1346 :     if (!_Myproxy) { // no proxy, already done

	mov	eax, DWORD PTR _this$[ebp]
	cmp	DWORD PTR [eax], 0
	jne	SHORT $LN5@Orphan_all

; 1347 :         return;

	jmp	SHORT $LN1@Orphan_all
$LN5@Orphan_all:

; 1348 :     }
; 1349 : 
; 1350 :     // proxy allocated, drain it
; 1351 :     for (auto _Pnext = _STD exchange(_Myproxy->_Myfirstiter, nullptr); _Pnext; _Pnext = _Pnext->_Mynextiter) {

	mov	DWORD PTR $T1[ebp], 0
	lea	ecx, DWORD PTR $T1[ebp]
	push	ecx
	mov	edx, DWORD PTR _this$[ebp]
	mov	eax, DWORD PTR [edx]
	add	eax, 4
	push	eax
	call	??$exchange@PAU_Iterator_base12@std@@$$T@std@@YAPAU_Iterator_base12@0@AAPAU10@$$QA$$T@Z ; std::exchange<std::_Iterator_base12 *,std::nullptr_t>
	add	esp, 8
	mov	DWORD PTR __Pnext$2[ebp], eax
	jmp	SHORT $LN4@Orphan_all
$LN2@Orphan_all:
	mov	ecx, DWORD PTR __Pnext$2[ebp]
	mov	edx, DWORD PTR [ecx+4]
	mov	DWORD PTR __Pnext$2[ebp], edx
$LN4@Orphan_all:
	cmp	DWORD PTR __Pnext$2[ebp], 0
	je	SHORT $LN3@Orphan_all

; 1352 :         _Pnext->_Myproxy = nullptr;

	mov	eax, DWORD PTR __Pnext$2[ebp]
	mov	DWORD PTR [eax], 0

; 1353 :     }

	jmp	SHORT $LN2@Orphan_all
$LN3@Orphan_all:
$LN1@Orphan_all:

; 1354 : }

	add	esp, 12					; 0000000cH
	cmp	ebp, esp
	call	__RTC_CheckEsp
	mov	esp, ebp
	pop	ebp
	ret	0
?_Orphan_all_unlocked_v3@_Container_base12@std@@AAEXXZ ENDP ; std::_Container_base12::_Orphan_all_unlocked_v3
_TEXT	ENDS
; Function compile flags: /Odtp /RTCsu
; File C:\Program Files\Microsoft Visual Studio\2022\Community\VC\Tools\MSVC\14.42.34433\include\xmemory
;	COMDAT ?_Orphan_all@_Container_base12@std@@QAEXXZ
_TEXT	SEGMENT
_this$ = -4						; size = 4
?_Orphan_all@_Container_base12@std@@QAEXXZ PROC		; std::_Container_base12::_Orphan_all, COMDAT
; _this$ = ecx

; 1356 : _CONSTEXPR20 void _Container_base12::_Orphan_all() noexcept {

	push	ebp
	mov	ebp, esp
	push	ecx
	mov	DWORD PTR [ebp-4], -858993460		; ccccccccH
	mov	DWORD PTR _this$[ebp], ecx

; 1357 : #if _ITERATOR_DEBUG_LEVEL == 2
; 1358 : #if _HAS_CXX20
; 1359 :     if (_STD is_constant_evaluated()) {
; 1360 :         _Orphan_all_unlocked_v3();
; 1361 :     } else
; 1362 : #endif // _HAS_CXX20
; 1363 :     {
; 1364 :         _Orphan_all_locked_v3();

	mov	ecx, DWORD PTR _this$[ebp]
	call	?_Orphan_all_locked_v3@_Container_base12@std@@AAEXXZ ; std::_Container_base12::_Orphan_all_locked_v3
	npad	1

; 1365 :     }
; 1366 : #endif // _ITERATOR_DEBUG_LEVEL == 2
; 1367 : }

	add	esp, 4
	cmp	ebp, esp
	call	__RTC_CheckEsp
	mov	esp, ebp
	pop	ebp
	ret	0
?_Orphan_all@_Container_base12@std@@QAEXXZ ENDP		; std::_Container_base12::_Orphan_all
_TEXT	ENDS
; Function compile flags: /Odtp /RTCsu
; File C:\Program Files\Microsoft Visual Studio\2022\Community\VC\Tools\MSVC\14.42.34433\include\xmemory
;	COMDAT ??0_Container_base12@std@@QAE@XZ
_TEXT	SEGMENT
_this$ = -4						; size = 4
??0_Container_base12@std@@QAE@XZ PROC			; std::_Container_base12::_Container_base12, COMDAT
; _this$ = ecx

; 1174 :     _CONSTEXPR20 _Container_base12() noexcept = default;

	push	ebp
	mov	ebp, esp
	push	ecx
	mov	DWORD PTR _this$[ebp], ecx

; 1175 : 
; 1176 :     _Container_base12(const _Container_base12&)            = delete;
; 1177 :     _Container_base12& operator=(const _Container_base12&) = delete;
; 1178 : 
; 1179 :     _CONSTEXPR20 void _Orphan_all() noexcept;
; 1180 :     _CONSTEXPR20 void _Swap_proxy_and_iterators(_Container_base12&) noexcept;
; 1181 : 
; 1182 :     template <class _Alloc>
; 1183 :     _CONSTEXPR20 void _Alloc_proxy(_Alloc&& _Al) {
; 1184 :         _Container_proxy* const _New_proxy = _Unfancy(_Al.allocate(1));
; 1185 :         _Construct_in_place(*_New_proxy, this);
; 1186 :         _Myproxy            = _New_proxy;
; 1187 :         _New_proxy->_Mycont = this;
; 1188 :     }
; 1189 : 
; 1190 :     template <class _Alloc>
; 1191 :     _CONSTEXPR20 void _Reload_proxy(_Alloc&& _Old_alloc, _Alloc&& _New_alloc) {
; 1192 :         // pre: no iterators refer to the existing proxy
; 1193 :         _Container_proxy* const _New_proxy = _Unfancy(_New_alloc.allocate(1));
; 1194 :         _Construct_in_place(*_New_proxy, this);
; 1195 :         _New_proxy->_Mycont = this;
; 1196 :         _Delete_plain_internal(_Old_alloc, _STD exchange(_Myproxy, _New_proxy));
; 1197 :     }
; 1198 : 
; 1199 :     _Container_proxy* _Myproxy = nullptr;

	mov	eax, DWORD PTR _this$[ebp]
	mov	DWORD PTR [eax], 0

; 1174 :     _CONSTEXPR20 _Container_base12() noexcept = default;

	mov	eax, DWORD PTR _this$[ebp]
	mov	esp, ebp
	pop	ebp
	ret	0
??0_Container_base12@std@@QAE@XZ ENDP			; std::_Container_base12::_Container_base12
_TEXT	ENDS
; Function compile flags: /Odtp /RTCsu
; File C:\Program Files\Microsoft Visual Studio\2022\Community\VC\Tools\MSVC\14.42.34433\include\xmemory
;	COMDAT ??0_Container_proxy@std@@QAE@PAU_Container_base12@1@@Z
_TEXT	SEGMENT
_this$ = -4						; size = 4
__Mycont_$ = 8						; size = 4
??0_Container_proxy@std@@QAE@PAU_Container_base12@1@@Z PROC ; std::_Container_proxy::_Container_proxy, COMDAT
; _this$ = ecx

; 1166 :     _CONSTEXPR20 _Container_proxy(_Container_base12* _Mycont_) noexcept : _Mycont(_Mycont_) {}

	push	ebp
	mov	ebp, esp
	push	ecx
	mov	DWORD PTR _this$[ebp], ecx
	mov	eax, DWORD PTR _this$[ebp]
	mov	ecx, DWORD PTR __Mycont_$[ebp]
	mov	DWORD PTR [eax], ecx

; 1167 : 
; 1168 :     const _Container_base12* _Mycont       = nullptr;
; 1169 :     mutable _Iterator_base12* _Myfirstiter = nullptr;

	mov	edx, DWORD PTR _this$[ebp]
	mov	DWORD PTR [edx+4], 0

; 1166 :     _CONSTEXPR20 _Container_proxy(_Container_base12* _Mycont_) noexcept : _Mycont(_Mycont_) {}

	mov	eax, DWORD PTR _this$[ebp]
	mov	esp, ebp
	pop	ebp
	ret	4
??0_Container_proxy@std@@QAE@PAU_Container_base12@1@@Z ENDP ; std::_Container_proxy::_Container_proxy
_TEXT	ENDS
; Function compile flags: /Odtp /RTCsu
; File C:\Program Files\Microsoft Visual Studio\2022\Community\VC\Tools\MSVC\14.42.34433\include\xmemory
;	COMDAT ?_Adjust_manually_vector_aligned@std@@YAXAAPAXAAI@Z
_TEXT	SEGMENT
__Back_shift$ = -16					; size = 4
__Min_back_shift$ = -12					; size = 4
__Ptr_container$ = -8					; size = 4
__Ptr_user$ = -4					; size = 4
__Ptr$ = 8						; size = 4
__Bytes$ = 12						; size = 4
?_Adjust_manually_vector_aligned@std@@YAXAAPAXAAI@Z PROC ; std::_Adjust_manually_vector_aligned, COMDAT

; 169  : inline void _Adjust_manually_vector_aligned(void*& _Ptr, size_t& _Bytes) {

	push	ebp
	mov	ebp, esp
	sub	esp, 16					; 00000010H
	mov	eax, -858993460				; ccccccccH
	mov	DWORD PTR [ebp-16], eax
	mov	DWORD PTR [ebp-12], eax
	mov	DWORD PTR [ebp-8], eax
	mov	DWORD PTR [ebp-4], eax

; 170  :     // adjust parameters from _Allocate_manually_vector_aligned to pass to operator delete
; 171  :     _Bytes += _Non_user_size;

	mov	eax, DWORD PTR __Bytes$[ebp]
	mov	ecx, DWORD PTR [eax]
	add	ecx, 39					; 00000027H
	mov	edx, DWORD PTR __Bytes$[ebp]
	mov	DWORD PTR [edx], ecx

; 172  : 
; 173  :     const uintptr_t* const _Ptr_user = static_cast<uintptr_t*>(_Ptr);

	mov	eax, DWORD PTR __Ptr$[ebp]
	mov	ecx, DWORD PTR [eax]
	mov	DWORD PTR __Ptr_user$[ebp], ecx

; 174  :     const uintptr_t _Ptr_container   = _Ptr_user[-1];

	mov	edx, 4
	imul	eax, edx, -1
	mov	ecx, DWORD PTR __Ptr_user$[ebp]
	mov	edx, DWORD PTR [ecx+eax]
	mov	DWORD PTR __Ptr_container$[ebp], edx
$LN4@Adjust_man:

; 175  : 
; 176  :     // If the following asserts, it likely means that we are performing
; 177  :     // an aligned delete on memory coming from an unaligned allocation.
; 178  :     _STL_ASSERT(_Ptr_user[-2] == _Big_allocation_sentinel, "invalid argument");

	mov	eax, 4
	imul	ecx, eax, -2
	mov	edx, DWORD PTR __Ptr_user$[ebp]
	cmp	DWORD PTR [edx+ecx], -84215046		; fafafafaH
	jne	SHORT $LN14@Adjust_man
	jmp	SHORT $LN6@Adjust_man
$LN14@Adjust_man:
	push	OFFSET ??_C@_0BB@FCMFBGOM@invalid?5argument@
	push	OFFSET ??_C@_02DKCKIIND@?$CFs@
	push	0
	push	178					; 000000b2H
	push	OFFSET ??_C@_0GC@KIHIELAM@C?3?2Program?5Files?2Microsoft?5Visu@
	push	2
	call	__CrtDbgReport
	add	esp, 24					; 00000018H
	cmp	eax, 1
	jne	SHORT $LN19@Adjust_man
	int	3
$LN19@Adjust_man:
	push	0
	push	178					; 000000b2H
	push	OFFSET ??_C@_1ME@NMPKGKJL@?$AAC?$AA?3?$AA?2?$AAP?$AAr?$AAo?$AAg?$AAr?$AAa?$AAm?$AA?5?$AAF?$AAi?$AAl?$AAe@
	push	OFFSET ??_C@_11LOCGONAA@@
	push	OFFSET ??_C@_1CG@JNLFBNGN@?$AA?$CC?$AAi?$AAn?$AAv?$AAa?$AAl?$AAi?$AAd?$AA?5?$AAa?$AAr?$AAg?$AAu?$AAm?$AAe@
	call	__invalid_parameter
	add	esp, 20					; 00000014H
	xor	ecx, ecx
	jne	SHORT $LN14@Adjust_man
$LN6@Adjust_man:
	xor	edx, edx
	jne	SHORT $LN4@Adjust_man

; 179  : 
; 180  :     // Extra paranoia on aligned allocation/deallocation; ensure _Ptr_container is
; 181  :     // in range [_Min_back_shift, _Non_user_size]
; 182  : #ifdef _DEBUG
; 183  :     constexpr uintptr_t _Min_back_shift = 2 * sizeof(void*);

	mov	DWORD PTR __Min_back_shift$[ebp], 8

; 184  : #else // ^^^ defined(_DEBUG) / !defined(_DEBUG) vvv
; 185  :     constexpr uintptr_t _Min_back_shift = sizeof(void*);
; 186  : #endif // ^^^ !defined(_DEBUG) ^^^
; 187  :     const uintptr_t _Back_shift = reinterpret_cast<uintptr_t>(_Ptr) - _Ptr_container;

	mov	eax, DWORD PTR __Ptr$[ebp]
	mov	ecx, DWORD PTR [eax]
	sub	ecx, DWORD PTR __Ptr_container$[ebp]
	mov	DWORD PTR __Back_shift$[ebp], ecx
$LN10@Adjust_man:

; 188  :     _STL_VERIFY(_Back_shift >= _Min_back_shift && _Back_shift <= _Non_user_size, "invalid argument");

	cmp	DWORD PTR __Back_shift$[ebp], 8
	jb	SHORT $LN16@Adjust_man
	cmp	DWORD PTR __Back_shift$[ebp], 39	; 00000027H
	ja	SHORT $LN16@Adjust_man
	jmp	SHORT $LN12@Adjust_man
$LN16@Adjust_man:
	push	OFFSET ??_C@_0BB@FCMFBGOM@invalid?5argument@
	push	OFFSET ??_C@_02DKCKIIND@?$CFs@
	push	0
	push	188					; 000000bcH
	push	OFFSET ??_C@_0GC@KIHIELAM@C?3?2Program?5Files?2Microsoft?5Visu@
	push	2
	call	__CrtDbgReport
	add	esp, 24					; 00000018H
	cmp	eax, 1
	jne	SHORT $LN20@Adjust_man
	int	3
$LN20@Adjust_man:
	push	0
	push	188					; 000000bcH
	push	OFFSET ??_C@_1ME@NMPKGKJL@?$AAC?$AA?3?$AA?2?$AAP?$AAr?$AAo?$AAg?$AAr?$AAa?$AAm?$AA?5?$AAF?$AAi?$AAl?$AAe@
	push	OFFSET ??_C@_11LOCGONAA@@
	push	OFFSET ??_C@_1CG@JNLFBNGN@?$AA?$CC?$AAi?$AAn?$AAv?$AAa?$AAl?$AAi?$AAd?$AA?5?$AAa?$AAr?$AAg?$AAu?$AAm?$AAe@
	call	__invalid_parameter
	add	esp, 20					; 00000014H
	xor	eax, eax
	jne	SHORT $LN16@Adjust_man
$LN12@Adjust_man:
	xor	ecx, ecx
	jne	SHORT $LN10@Adjust_man

; 189  :     _Ptr = reinterpret_cast<void*>(_Ptr_container);

	mov	edx, DWORD PTR __Ptr$[ebp]
	mov	eax, DWORD PTR __Ptr_container$[ebp]
	mov	DWORD PTR [edx], eax

; 190  : }

	add	esp, 16					; 00000010H
	cmp	ebp, esp
	call	__RTC_CheckEsp
	mov	esp, ebp
	pop	ebp
	ret	0
?_Adjust_manually_vector_aligned@std@@YAXAAPAXAAI@Z ENDP ; std::_Adjust_manually_vector_aligned
_TEXT	ENDS
; Function compile flags: /Odtp /RTCsu
; File C:\Program Files\Microsoft Visual Studio\2022\Community\VC\Tools\MSVC\14.42.34433\include\xmemory
;	COMDAT ?_Allocate@_Default_allocate_traits@std@@SAPAXI@Z
_TEXT	SEGMENT
__Bytes$ = 8						; size = 4
?_Allocate@_Default_allocate_traits@std@@SAPAXI@Z PROC	; std::_Default_allocate_traits::_Allocate, COMDAT

; 100  :         void* _Allocate(const size_t _Bytes) {

	push	ebp
	mov	ebp, esp

; 101  :         return ::operator new(_Bytes);

	mov	eax, DWORD PTR __Bytes$[ebp]
	push	eax
	call	??2@YAPAXI@Z				; operator new
	add	esp, 4

; 102  :     }

	cmp	ebp, esp
	call	__RTC_CheckEsp
	pop	ebp
	ret	0
?_Allocate@_Default_allocate_traits@std@@SAPAXI@Z ENDP	; std::_Default_allocate_traits::_Allocate
_TEXT	ENDS
; Function compile flags: /Odtp /RTCsu
; File C:\Program Files\Microsoft Visual Studio\2022\Community\VC\Tools\MSVC\14.42.34433\include\xmemory
;	COMDAT ?_Throw_bad_array_new_length@std@@YAXXZ
_TEXT	SEGMENT
$T1 = -12						; size = 12
?_Throw_bad_array_new_length@std@@YAXXZ PROC		; std::_Throw_bad_array_new_length, COMDAT

; 74   : [[noreturn]] inline void _Throw_bad_array_new_length() {

	push	ebp
	mov	ebp, esp
	sub	esp, 12					; 0000000cH
	mov	DWORD PTR [ebp-12], -858993460		; ccccccccH
	mov	DWORD PTR [ebp-8], -858993460		; ccccccccH
	mov	DWORD PTR [ebp-4], -858993460		; ccccccccH

; 75   :     _THROW(bad_array_new_length{});

	lea	ecx, DWORD PTR $T1[ebp]
	call	??0bad_array_new_length@std@@QAE@XZ	; std::bad_array_new_length::bad_array_new_length
	push	OFFSET __TI3?AVbad_array_new_length@std@@
	lea	eax, DWORD PTR $T1[ebp]
	push	eax
	call	__CxxThrowException@8
	npad	1
$LN1@Throw_bad_:

; 76   : }

	add	esp, 12					; 0000000cH
	cmp	ebp, esp
	call	__RTC_CheckEsp
	mov	esp, ebp
	pop	ebp
	ret	0
?_Throw_bad_array_new_length@std@@YAXXZ ENDP		; std::_Throw_bad_array_new_length
_TEXT	ENDS
; Function compile flags: /Odtp /RTCsu
;	COMDAT ??_Gbad_array_new_length@std@@UAEPAXI@Z
_TEXT	SEGMENT
_this$ = -4						; size = 4
___flags$ = 8						; size = 4
??_Gbad_array_new_length@std@@UAEPAXI@Z PROC		; std::bad_array_new_length::`scalar deleting destructor', COMDAT
; _this$ = ecx
	push	ebp
	mov	ebp, esp
	push	ecx
	mov	DWORD PTR [ebp-4], -858993460		; ccccccccH
	mov	DWORD PTR _this$[ebp], ecx
	mov	ecx, DWORD PTR _this$[ebp]
	call	??1bad_array_new_length@std@@UAE@XZ
	mov	eax, DWORD PTR ___flags$[ebp]
	and	eax, 1
	je	SHORT $LN2@scalar
	push	12					; 0000000cH
	mov	ecx, DWORD PTR _this$[ebp]
	push	ecx
	call	??3@YAXPAXI@Z				; operator delete
	add	esp, 8
$LN2@scalar:
	mov	eax, DWORD PTR _this$[ebp]
	add	esp, 4
	cmp	ebp, esp
	call	__RTC_CheckEsp
	mov	esp, ebp
	pop	ebp
	ret	4
??_Gbad_array_new_length@std@@UAEPAXI@Z ENDP		; std::bad_array_new_length::`scalar deleting destructor'
_TEXT	ENDS
; Function compile flags: /Odtp /RTCsu
;	COMDAT ??0bad_array_new_length@std@@QAE@ABV01@@Z
_TEXT	SEGMENT
_this$ = -4						; size = 4
___that$ = 8						; size = 4
??0bad_array_new_length@std@@QAE@ABV01@@Z PROC		; std::bad_array_new_length::bad_array_new_length, COMDAT
; _this$ = ecx
	push	ebp
	mov	ebp, esp
	push	ecx
	mov	DWORD PTR [ebp-4], -858993460		; ccccccccH
	mov	DWORD PTR _this$[ebp], ecx
	mov	eax, DWORD PTR ___that$[ebp]
	push	eax
	mov	ecx, DWORD PTR _this$[ebp]
	call	??0bad_alloc@std@@QAE@ABV01@@Z
	mov	ecx, DWORD PTR _this$[ebp]
	mov	DWORD PTR [ecx], OFFSET ??_7bad_array_new_length@std@@6B@
	mov	eax, DWORD PTR _this$[ebp]
	add	esp, 4
	cmp	ebp, esp
	call	__RTC_CheckEsp
	mov	esp, ebp
	pop	ebp
	ret	4
??0bad_array_new_length@std@@QAE@ABV01@@Z ENDP		; std::bad_array_new_length::bad_array_new_length
_TEXT	ENDS
; Function compile flags: /Odtp /RTCsu
;	COMDAT ??1bad_array_new_length@std@@UAE@XZ
_TEXT	SEGMENT
_this$ = -4						; size = 4
??1bad_array_new_length@std@@UAE@XZ PROC		; std::bad_array_new_length::~bad_array_new_length, COMDAT
; _this$ = ecx
	push	ebp
	mov	ebp, esp
	push	ecx
	mov	DWORD PTR [ebp-4], -858993460		; ccccccccH
	mov	DWORD PTR _this$[ebp], ecx
	mov	ecx, DWORD PTR _this$[ebp]
	call	??1bad_alloc@std@@UAE@XZ
	npad	1
	add	esp, 4
	cmp	ebp, esp
	call	__RTC_CheckEsp
	mov	esp, ebp
	pop	ebp
	ret	0
??1bad_array_new_length@std@@UAE@XZ ENDP		; std::bad_array_new_length::~bad_array_new_length
_TEXT	ENDS
; Function compile flags: /Odtp /RTCsu
; File C:\Program Files\Microsoft Visual Studio\2022\Community\VC\Tools\MSVC\14.42.34433\include\vcruntime_exception.h
;	COMDAT ??0bad_array_new_length@std@@QAE@XZ
_TEXT	SEGMENT
_this$ = -4						; size = 4
??0bad_array_new_length@std@@QAE@XZ PROC		; std::bad_array_new_length::bad_array_new_length, COMDAT
; _this$ = ecx

; 144  :     {

	push	ebp
	mov	ebp, esp
	push	ecx
	mov	DWORD PTR [ebp-4], -858993460		; ccccccccH
	mov	DWORD PTR _this$[ebp], ecx

; 143  :         : bad_alloc("bad array new length")

	push	OFFSET ??_C@_0BF@KINCDENJ@bad?5array?5new?5length@
	mov	ecx, DWORD PTR _this$[ebp]
	call	??0bad_alloc@std@@AAE@QBD@Z		; std::bad_alloc::bad_alloc

; 144  :     {

	mov	eax, DWORD PTR _this$[ebp]
	mov	DWORD PTR [eax], OFFSET ??_7bad_array_new_length@std@@6B@

; 145  :     }

	mov	eax, DWORD PTR _this$[ebp]
	add	esp, 4
	cmp	ebp, esp
	call	__RTC_CheckEsp
	mov	esp, ebp
	pop	ebp
	ret	0
??0bad_array_new_length@std@@QAE@XZ ENDP		; std::bad_array_new_length::bad_array_new_length
_TEXT	ENDS
; Function compile flags: /Odtp /RTCsu
;	COMDAT ??_Gbad_alloc@std@@UAEPAXI@Z
_TEXT	SEGMENT
_this$ = -4						; size = 4
___flags$ = 8						; size = 4
??_Gbad_alloc@std@@UAEPAXI@Z PROC			; std::bad_alloc::`scalar deleting destructor', COMDAT
; _this$ = ecx
	push	ebp
	mov	ebp, esp
	push	ecx
	mov	DWORD PTR [ebp-4], -858993460		; ccccccccH
	mov	DWORD PTR _this$[ebp], ecx
	mov	ecx, DWORD PTR _this$[ebp]
	call	??1bad_alloc@std@@UAE@XZ
	mov	eax, DWORD PTR ___flags$[ebp]
	and	eax, 1
	je	SHORT $LN2@scalar
	push	12					; 0000000cH
	mov	ecx, DWORD PTR _this$[ebp]
	push	ecx
	call	??3@YAXPAXI@Z				; operator delete
	add	esp, 8
$LN2@scalar:
	mov	eax, DWORD PTR _this$[ebp]
	add	esp, 4
	cmp	ebp, esp
	call	__RTC_CheckEsp
	mov	esp, ebp
	pop	ebp
	ret	4
??_Gbad_alloc@std@@UAEPAXI@Z ENDP			; std::bad_alloc::`scalar deleting destructor'
_TEXT	ENDS
; Function compile flags: /Odtp /RTCsu
;	COMDAT ??0bad_alloc@std@@QAE@ABV01@@Z
_TEXT	SEGMENT
_this$ = -4						; size = 4
___that$ = 8						; size = 4
??0bad_alloc@std@@QAE@ABV01@@Z PROC			; std::bad_alloc::bad_alloc, COMDAT
; _this$ = ecx
	push	ebp
	mov	ebp, esp
	push	ecx
	mov	DWORD PTR [ebp-4], -858993460		; ccccccccH
	mov	DWORD PTR _this$[ebp], ecx
	mov	eax, DWORD PTR ___that$[ebp]
	push	eax
	mov	ecx, DWORD PTR _this$[ebp]
	call	??0exception@std@@QAE@ABV01@@Z		; std::exception::exception
	mov	ecx, DWORD PTR _this$[ebp]
	mov	DWORD PTR [ecx], OFFSET ??_7bad_alloc@std@@6B@
	mov	eax, DWORD PTR _this$[ebp]
	add	esp, 4
	cmp	ebp, esp
	call	__RTC_CheckEsp
	mov	esp, ebp
	pop	ebp
	ret	4
??0bad_alloc@std@@QAE@ABV01@@Z ENDP			; std::bad_alloc::bad_alloc
_TEXT	ENDS
; Function compile flags: /Odtp /RTCsu
;	COMDAT ??1bad_alloc@std@@UAE@XZ
_TEXT	SEGMENT
_this$ = -4						; size = 4
??1bad_alloc@std@@UAE@XZ PROC				; std::bad_alloc::~bad_alloc, COMDAT
; _this$ = ecx
	push	ebp
	mov	ebp, esp
	push	ecx
	mov	DWORD PTR [ebp-4], -858993460		; ccccccccH
	mov	DWORD PTR _this$[ebp], ecx
	mov	ecx, DWORD PTR _this$[ebp]
	call	??1exception@std@@UAE@XZ		; std::exception::~exception
	npad	1
	add	esp, 4
	cmp	ebp, esp
	call	__RTC_CheckEsp
	mov	esp, ebp
	pop	ebp
	ret	0
??1bad_alloc@std@@UAE@XZ ENDP				; std::bad_alloc::~bad_alloc
_TEXT	ENDS
; Function compile flags: /Odtp /RTCsu
; File C:\Program Files\Microsoft Visual Studio\2022\Community\VC\Tools\MSVC\14.42.34433\include\vcruntime_exception.h
;	COMDAT ??0bad_alloc@std@@AAE@QBD@Z
_TEXT	SEGMENT
_this$ = -4						; size = 4
__Message$ = 8						; size = 4
??0bad_alloc@std@@AAE@QBD@Z PROC			; std::bad_alloc::bad_alloc, COMDAT
; _this$ = ecx

; 133  :     {

	push	ebp
	mov	ebp, esp
	push	ecx
	mov	DWORD PTR [ebp-4], -858993460		; ccccccccH
	mov	DWORD PTR _this$[ebp], ecx

; 132  :         : exception(_Message, 1)

	push	1
	mov	eax, DWORD PTR __Message$[ebp]
	push	eax
	mov	ecx, DWORD PTR _this$[ebp]
	call	??0exception@std@@QAE@QBDH@Z		; std::exception::exception

; 133  :     {

	mov	ecx, DWORD PTR _this$[ebp]
	mov	DWORD PTR [ecx], OFFSET ??_7bad_alloc@std@@6B@

; 134  :     }

	mov	eax, DWORD PTR _this$[ebp]
	add	esp, 4
	cmp	ebp, esp
	call	__RTC_CheckEsp
	mov	esp, ebp
	pop	ebp
	ret	4
??0bad_alloc@std@@AAE@QBD@Z ENDP			; std::bad_alloc::bad_alloc
_TEXT	ENDS
; Function compile flags: /Odtp /RTCsu
;	COMDAT ??_Gexception@std@@UAEPAXI@Z
_TEXT	SEGMENT
_this$ = -4						; size = 4
___flags$ = 8						; size = 4
??_Gexception@std@@UAEPAXI@Z PROC			; std::exception::`scalar deleting destructor', COMDAT
; _this$ = ecx
	push	ebp
	mov	ebp, esp
	push	ecx
	mov	DWORD PTR [ebp-4], -858993460		; ccccccccH
	mov	DWORD PTR _this$[ebp], ecx
	mov	ecx, DWORD PTR _this$[ebp]
	call	??1exception@std@@UAE@XZ		; std::exception::~exception
	mov	eax, DWORD PTR ___flags$[ebp]
	and	eax, 1
	je	SHORT $LN2@scalar
	push	12					; 0000000cH
	mov	ecx, DWORD PTR _this$[ebp]
	push	ecx
	call	??3@YAXPAXI@Z				; operator delete
	add	esp, 8
$LN2@scalar:
	mov	eax, DWORD PTR _this$[ebp]
	add	esp, 4
	cmp	ebp, esp
	call	__RTC_CheckEsp
	mov	esp, ebp
	pop	ebp
	ret	4
??_Gexception@std@@UAEPAXI@Z ENDP			; std::exception::`scalar deleting destructor'
_TEXT	ENDS
; Function compile flags: /Odtp /RTCsu
; File C:\Program Files\Microsoft Visual Studio\2022\Community\VC\Tools\MSVC\14.42.34433\include\vcruntime_exception.h
;	COMDAT ?what@exception@std@@UBEPBDXZ
_TEXT	SEGMENT
tv69 = -8						; size = 4
_this$ = -4						; size = 4
?what@exception@std@@UBEPBDXZ PROC			; std::exception::what, COMDAT
; _this$ = ecx

; 95   :     {

	push	ebp
	mov	ebp, esp
	sub	esp, 8
	mov	DWORD PTR _this$[ebp], ecx

; 96   :         return _Data._What ? _Data._What : "Unknown exception";

	mov	eax, DWORD PTR _this$[ebp]
	cmp	DWORD PTR [eax+4], 0
	je	SHORT $LN3@what
	mov	ecx, DWORD PTR _this$[ebp]
	mov	edx, DWORD PTR [ecx+4]
	mov	DWORD PTR tv69[ebp], edx
	jmp	SHORT $LN4@what
$LN3@what:
	mov	DWORD PTR tv69[ebp], OFFSET ??_C@_0BC@EOODALEL@Unknown?5exception@
$LN4@what:
	mov	eax, DWORD PTR tv69[ebp]

; 97   :     }

	mov	esp, ebp
	pop	ebp
	ret	0
?what@exception@std@@UBEPBDXZ ENDP			; std::exception::what
_TEXT	ENDS
; Function compile flags: /Odtp /RTCsu
; File C:\Program Files\Microsoft Visual Studio\2022\Community\VC\Tools\MSVC\14.42.34433\include\vcruntime_exception.h
;	COMDAT ??1exception@std@@UAE@XZ
_TEXT	SEGMENT
_this$ = -4						; size = 4
??1exception@std@@UAE@XZ PROC				; std::exception::~exception, COMDAT
; _this$ = ecx

; 90   :     {

	push	ebp
	mov	ebp, esp
	push	ecx
	mov	DWORD PTR [ebp-4], -858993460		; ccccccccH
	mov	DWORD PTR _this$[ebp], ecx
	mov	eax, DWORD PTR _this$[ebp]
	mov	DWORD PTR [eax], OFFSET ??_7exception@std@@6B@

; 91   :         __std_exception_destroy(&_Data);

	mov	ecx, DWORD PTR _this$[ebp]
	add	ecx, 4
	push	ecx
	call	___std_exception_destroy
	add	esp, 4

; 92   :     }

	add	esp, 4
	cmp	ebp, esp
	call	__RTC_CheckEsp
	mov	esp, ebp
	pop	ebp
	ret	0
??1exception@std@@UAE@XZ ENDP				; std::exception::~exception
_TEXT	ENDS
; Function compile flags: /Odtp /RTCsu
; File C:\Program Files\Microsoft Visual Studio\2022\Community\VC\Tools\MSVC\14.42.34433\include\vcruntime_exception.h
;	COMDAT ??0exception@std@@QAE@ABV01@@Z
_TEXT	SEGMENT
_this$ = -4						; size = 4
__Other$ = 8						; size = 4
??0exception@std@@QAE@ABV01@@Z PROC			; std::exception::exception, COMDAT
; _this$ = ecx

; 73   :     {

	push	ebp
	mov	ebp, esp
	push	ecx
	mov	DWORD PTR [ebp-4], -858993460		; ccccccccH
	mov	DWORD PTR _this$[ebp], ecx
	mov	eax, DWORD PTR _this$[ebp]
	mov	DWORD PTR [eax], OFFSET ??_7exception@std@@6B@

; 72   :         : _Data()

	xor	ecx, ecx
	mov	edx, DWORD PTR _this$[ebp]
	add	edx, 4
	mov	DWORD PTR [edx], ecx
	mov	DWORD PTR [edx+4], ecx

; 74   :         __std_exception_copy(&_Other._Data, &_Data);

	mov	eax, DWORD PTR _this$[ebp]
	add	eax, 4
	push	eax
	mov	ecx, DWORD PTR __Other$[ebp]
	add	ecx, 4
	push	ecx
	call	___std_exception_copy
	add	esp, 8

; 75   :     }

	mov	eax, DWORD PTR _this$[ebp]
	add	esp, 4
	cmp	ebp, esp
	call	__RTC_CheckEsp
	mov	esp, ebp
	pop	ebp
	ret	4
??0exception@std@@QAE@ABV01@@Z ENDP			; std::exception::exception
_TEXT	ENDS
; Function compile flags: /Odtp /RTCsu
; File C:\Program Files\Microsoft Visual Studio\2022\Community\VC\Tools\MSVC\14.42.34433\include\vcruntime_exception.h
;	COMDAT ??0exception@std@@QAE@QBDH@Z
_TEXT	SEGMENT
_this$ = -4						; size = 4
__Message$ = 8						; size = 4
___formal$ = 12						; size = 4
??0exception@std@@QAE@QBDH@Z PROC			; std::exception::exception, COMDAT
; _this$ = ecx

; 67   :     {

	push	ebp
	mov	ebp, esp
	push	ecx
	mov	DWORD PTR _this$[ebp], ecx
	mov	eax, DWORD PTR _this$[ebp]
	mov	DWORD PTR [eax], OFFSET ??_7exception@std@@6B@

; 66   :         : _Data()

	xor	ecx, ecx
	mov	edx, DWORD PTR _this$[ebp]
	add	edx, 4
	mov	DWORD PTR [edx], ecx
	mov	DWORD PTR [edx+4], ecx

; 68   :         _Data._What = _Message;

	mov	eax, DWORD PTR _this$[ebp]
	mov	ecx, DWORD PTR __Message$[ebp]
	mov	DWORD PTR [eax+4], ecx

; 69   :     }

	mov	eax, DWORD PTR _this$[ebp]
	mov	esp, ebp
	pop	ebp
	ret	8
??0exception@std@@QAE@QBDH@Z ENDP			; std::exception::exception
_TEXT	ENDS
; Function compile flags: /Odtp /RTCsu
; File C:\Program Files\Microsoft Visual Studio\2022\Community\VC\Tools\MSVC\14.42.34433\include\vcruntime_new.h
;	COMDAT ??2@YAPAXIPAX@Z
_TEXT	SEGMENT
__Size$ = 8						; size = 4
__Where$ = 12						; size = 4
??2@YAPAXIPAX@Z PROC					; operator new, COMDAT

; 164  :     {

	push	ebp
	mov	ebp, esp

; 165  :         (void)_Size;
; 166  :         return _Where;

	mov	eax, DWORD PTR __Where$[ebp]

; 167  :     }

	pop	ebp
	ret	0
??2@YAPAXIPAX@Z ENDP					; operator new
_TEXT	ENDS
; Function compile flags: /Odtp /RTCsu
; File C:\Users\rpg26\OneDrive\Desktop\Source\VS2010\Common\fuzzy\FuzzyOperators.cpp
;	COMDAT ?__empty_global_delete@@YAXPAXI@Z
_TEXT	SEGMENT
___formal$ = 8						; size = 4
___formal$ = 12						; size = 4
?__empty_global_delete@@YAXPAXI@Z PROC			; __empty_global_delete, COMDAT

	push	ebp
	mov	ebp, esp
	pop	ebp
	ret	0
?__empty_global_delete@@YAXPAXI@Z ENDP			; __empty_global_delete
_TEXT	ENDS
; Function compile flags: /Odtp /RTCsu
; File C:\Users\rpg26\OneDrive\Desktop\Source\VS2010\Common\fuzzy\FuzzyOperators.cpp
;	COMDAT ?__empty_global_delete@@YAXPAX@Z
_TEXT	SEGMENT
___formal$ = 8						; size = 4
?__empty_global_delete@@YAXPAX@Z PROC			; __empty_global_delete, COMDAT

	push	ebp
	mov	ebp, esp
	pop	ebp
	ret	0
?__empty_global_delete@@YAXPAX@Z ENDP			; __empty_global_delete
_TEXT	ENDS
END
